
./reduc:     file format elf64-x86-64


Disassembly of section .init:

0000000000001000 <_init>:
    1000:	f3 0f 1e fa          	endbr64 
    1004:	48 83 ec 08          	sub    $0x8,%rsp
    1008:	48 8b 05 d9 2f 00 00 	mov    0x2fd9(%rip),%rax        # 3fe8 <__gmon_start__@Base>
    100f:	48 85 c0             	test   %rax,%rax
    1012:	74 02                	je     1016 <_init+0x16>
    1014:	ff d0                	call   *%rax
    1016:	48 83 c4 08          	add    $0x8,%rsp
    101a:	c3                   	ret    

Disassembly of section .plt:

0000000000001020 <.plt>:
    1020:	ff 35 4a 2f 00 00    	push   0x2f4a(%rip)        # 3f70 <_GLOBAL_OFFSET_TABLE_+0x8>
    1026:	f2 ff 25 4b 2f 00 00 	bnd jmp *0x2f4b(%rip)        # 3f78 <_GLOBAL_OFFSET_TABLE_+0x10>
    102d:	0f 1f 00             	nopl   (%rax)
    1030:	f3 0f 1e fa          	endbr64 
    1034:	68 00 00 00 00       	push   $0x0
    1039:	f2 e9 e1 ff ff ff    	bnd jmp 1020 <_init+0x20>
    103f:	90                   	nop
    1040:	f3 0f 1e fa          	endbr64 
    1044:	68 01 00 00 00       	push   $0x1
    1049:	f2 e9 d1 ff ff ff    	bnd jmp 1020 <_init+0x20>
    104f:	90                   	nop
    1050:	f3 0f 1e fa          	endbr64 
    1054:	68 02 00 00 00       	push   $0x2
    1059:	f2 e9 c1 ff ff ff    	bnd jmp 1020 <_init+0x20>
    105f:	90                   	nop
    1060:	f3 0f 1e fa          	endbr64 
    1064:	68 03 00 00 00       	push   $0x3
    1069:	f2 e9 b1 ff ff ff    	bnd jmp 1020 <_init+0x20>
    106f:	90                   	nop
    1070:	f3 0f 1e fa          	endbr64 
    1074:	68 04 00 00 00       	push   $0x4
    1079:	f2 e9 a1 ff ff ff    	bnd jmp 1020 <_init+0x20>
    107f:	90                   	nop
    1080:	f3 0f 1e fa          	endbr64 
    1084:	68 05 00 00 00       	push   $0x5
    1089:	f2 e9 91 ff ff ff    	bnd jmp 1020 <_init+0x20>
    108f:	90                   	nop
    1090:	f3 0f 1e fa          	endbr64 
    1094:	68 06 00 00 00       	push   $0x6
    1099:	f2 e9 81 ff ff ff    	bnd jmp 1020 <_init+0x20>
    109f:	90                   	nop
    10a0:	f3 0f 1e fa          	endbr64 
    10a4:	68 07 00 00 00       	push   $0x7
    10a9:	f2 e9 71 ff ff ff    	bnd jmp 1020 <_init+0x20>
    10af:	90                   	nop
    10b0:	f3 0f 1e fa          	endbr64 
    10b4:	68 08 00 00 00       	push   $0x8
    10b9:	f2 e9 61 ff ff ff    	bnd jmp 1020 <_init+0x20>
    10bf:	90                   	nop
    10c0:	f3 0f 1e fa          	endbr64 
    10c4:	68 09 00 00 00       	push   $0x9
    10c9:	f2 e9 51 ff ff ff    	bnd jmp 1020 <_init+0x20>
    10cf:	90                   	nop
    10d0:	f3 0f 1e fa          	endbr64 
    10d4:	68 0a 00 00 00       	push   $0xa
    10d9:	f2 e9 41 ff ff ff    	bnd jmp 1020 <_init+0x20>
    10df:	90                   	nop

Disassembly of section .plt.got:

00000000000010e0 <__cxa_finalize@plt>:
    10e0:	f3 0f 1e fa          	endbr64 
    10e4:	f2 ff 25 0d 2f 00 00 	bnd jmp *0x2f0d(%rip)        # 3ff8 <__cxa_finalize@GLIBC_2.2.5>
    10eb:	0f 1f 44 00 00       	nopl   0x0(%rax,%rax,1)

Disassembly of section .plt.sec:

00000000000010f0 <free@plt>:
    10f0:	f3 0f 1e fa          	endbr64 
    10f4:	f2 ff 25 85 2e 00 00 	bnd jmp *0x2e85(%rip)        # 3f80 <free@GLIBC_2.2.5>
    10fb:	0f 1f 44 00 00       	nopl   0x0(%rax,%rax,1)

0000000000001100 <putchar@plt>:
    1100:	f3 0f 1e fa          	endbr64 
    1104:	f2 ff 25 7d 2e 00 00 	bnd jmp *0x2e7d(%rip)        # 3f88 <putchar@GLIBC_2.2.5>
    110b:	0f 1f 44 00 00       	nopl   0x0(%rax,%rax,1)

0000000000001110 <clock_gettime@plt>:
    1110:	f3 0f 1e fa          	endbr64 
    1114:	f2 ff 25 75 2e 00 00 	bnd jmp *0x2e75(%rip)        # 3f90 <clock_gettime@GLIBC_2.17>
    111b:	0f 1f 44 00 00       	nopl   0x0(%rax,%rax,1)

0000000000001120 <getpid@plt>:
    1120:	f3 0f 1e fa          	endbr64 
    1124:	f2 ff 25 6d 2e 00 00 	bnd jmp *0x2e6d(%rip)        # 3f98 <getpid@GLIBC_2.2.5>
    112b:	0f 1f 44 00 00       	nopl   0x0(%rax,%rax,1)

0000000000001130 <__stack_chk_fail@plt>:
    1130:	f3 0f 1e fa          	endbr64 
    1134:	f2 ff 25 65 2e 00 00 	bnd jmp *0x2e65(%rip)        # 3fa0 <__stack_chk_fail@GLIBC_2.4>
    113b:	0f 1f 44 00 00       	nopl   0x0(%rax,%rax,1)

0000000000001140 <srand@plt>:
    1140:	f3 0f 1e fa          	endbr64 
    1144:	f2 ff 25 5d 2e 00 00 	bnd jmp *0x2e5d(%rip)        # 3fa8 <srand@GLIBC_2.2.5>
    114b:	0f 1f 44 00 00       	nopl   0x0(%rax,%rax,1)

0000000000001150 <strtoll@plt>:
    1150:	f3 0f 1e fa          	endbr64 
    1154:	f2 ff 25 55 2e 00 00 	bnd jmp *0x2e55(%rip)        # 3fb0 <strtoll@GLIBC_2.2.5>
    115b:	0f 1f 44 00 00       	nopl   0x0(%rax,%rax,1)

0000000000001160 <__printf_chk@plt>:
    1160:	f3 0f 1e fa          	endbr64 
    1164:	f2 ff 25 4d 2e 00 00 	bnd jmp *0x2e4d(%rip)        # 3fb8 <__printf_chk@GLIBC_2.3.4>
    116b:	0f 1f 44 00 00       	nopl   0x0(%rax,%rax,1)

0000000000001170 <aligned_alloc@plt>:
    1170:	f3 0f 1e fa          	endbr64 
    1174:	f2 ff 25 45 2e 00 00 	bnd jmp *0x2e45(%rip)        # 3fc0 <aligned_alloc@GLIBC_2.16>
    117b:	0f 1f 44 00 00       	nopl   0x0(%rax,%rax,1)

0000000000001180 <sqrt@plt>:
    1180:	f3 0f 1e fa          	endbr64 
    1184:	f2 ff 25 3d 2e 00 00 	bnd jmp *0x2e3d(%rip)        # 3fc8 <sqrt@GLIBC_2.2.5>
    118b:	0f 1f 44 00 00       	nopl   0x0(%rax,%rax,1)

0000000000001190 <rand@plt>:
    1190:	f3 0f 1e fa          	endbr64 
    1194:	f2 ff 25 35 2e 00 00 	bnd jmp *0x2e35(%rip)        # 3fd0 <rand@GLIBC_2.2.5>
    119b:	0f 1f 44 00 00       	nopl   0x0(%rax,%rax,1)

Disassembly of section .text:

00000000000011a0 <_start>:
    11a0:	f3 0f 1e fa          	endbr64 
    11a4:	31 ed                	xor    %ebp,%ebp
    11a6:	49 89 d1             	mov    %rdx,%r9
    11a9:	5e                   	pop    %rsi
    11aa:	48 89 e2             	mov    %rsp,%rdx
    11ad:	48 83 e4 f0          	and    $0xfffffffffffffff0,%rsp
    11b1:	50                   	push   %rax
    11b2:	54                   	push   %rsp
    11b3:	45 31 c0             	xor    %r8d,%r8d
    11b6:	31 c9                	xor    %ecx,%ecx
    11b8:	48 8d 3d 5f 03 00 00 	lea    0x35f(%rip),%rdi        # 151e <main>
    11bf:	ff 15 13 2e 00 00    	call   *0x2e13(%rip)        # 3fd8 <__libc_start_main@GLIBC_2.34>
    11c5:	f4                   	hlt    
    11c6:	66 2e 0f 1f 84 00 00 	cs nopw 0x0(%rax,%rax,1)
    11cd:	00 00 00 

00000000000011d0 <deregister_tm_clones>:
    11d0:	48 8d 3d 39 2e 00 00 	lea    0x2e39(%rip),%rdi        # 4010 <__TMC_END__>
    11d7:	48 8d 05 32 2e 00 00 	lea    0x2e32(%rip),%rax        # 4010 <__TMC_END__>
    11de:	48 39 f8             	cmp    %rdi,%rax
    11e1:	74 15                	je     11f8 <deregister_tm_clones+0x28>
    11e3:	48 8b 05 f6 2d 00 00 	mov    0x2df6(%rip),%rax        # 3fe0 <_ITM_deregisterTMCloneTable@Base>
    11ea:	48 85 c0             	test   %rax,%rax
    11ed:	74 09                	je     11f8 <deregister_tm_clones+0x28>
    11ef:	ff e0                	jmp    *%rax
    11f1:	0f 1f 80 00 00 00 00 	nopl   0x0(%rax)
    11f8:	c3                   	ret    
    11f9:	0f 1f 80 00 00 00 00 	nopl   0x0(%rax)

0000000000001200 <register_tm_clones>:
    1200:	48 8d 3d 09 2e 00 00 	lea    0x2e09(%rip),%rdi        # 4010 <__TMC_END__>
    1207:	48 8d 35 02 2e 00 00 	lea    0x2e02(%rip),%rsi        # 4010 <__TMC_END__>
    120e:	48 29 fe             	sub    %rdi,%rsi
    1211:	48 89 f0             	mov    %rsi,%rax
    1214:	48 c1 ee 3f          	shr    $0x3f,%rsi
    1218:	48 c1 f8 03          	sar    $0x3,%rax
    121c:	48 01 c6             	add    %rax,%rsi
    121f:	48 d1 fe             	sar    %rsi
    1222:	74 14                	je     1238 <register_tm_clones+0x38>
    1224:	48 8b 05 c5 2d 00 00 	mov    0x2dc5(%rip),%rax        # 3ff0 <_ITM_registerTMCloneTable@Base>
    122b:	48 85 c0             	test   %rax,%rax
    122e:	74 08                	je     1238 <register_tm_clones+0x38>
    1230:	ff e0                	jmp    *%rax
    1232:	66 0f 1f 44 00 00    	nopw   0x0(%rax,%rax,1)
    1238:	c3                   	ret    
    1239:	0f 1f 80 00 00 00 00 	nopl   0x0(%rax)

0000000000001240 <__do_global_dtors_aux>:
    1240:	f3 0f 1e fa          	endbr64 
    1244:	80 3d c5 2d 00 00 00 	cmpb   $0x0,0x2dc5(%rip)        # 4010 <__TMC_END__>
    124b:	75 2b                	jne    1278 <__do_global_dtors_aux+0x38>
    124d:	55                   	push   %rbp
    124e:	48 83 3d a2 2d 00 00 	cmpq   $0x0,0x2da2(%rip)        # 3ff8 <__cxa_finalize@GLIBC_2.2.5>
    1255:	00 
    1256:	48 89 e5             	mov    %rsp,%rbp
    1259:	74 0c                	je     1267 <__do_global_dtors_aux+0x27>
    125b:	48 8b 3d a6 2d 00 00 	mov    0x2da6(%rip),%rdi        # 4008 <__dso_handle>
    1262:	e8 79 fe ff ff       	call   10e0 <__cxa_finalize@plt>
    1267:	e8 64 ff ff ff       	call   11d0 <deregister_tm_clones>
    126c:	c6 05 9d 2d 00 00 01 	movb   $0x1,0x2d9d(%rip)        # 4010 <__TMC_END__>
    1273:	5d                   	pop    %rbp
    1274:	c3                   	ret    
    1275:	0f 1f 00             	nopl   (%rax)
    1278:	c3                   	ret    
    1279:	0f 1f 80 00 00 00 00 	nopl   0x0(%rax)

0000000000001280 <frame_dummy>:
    1280:	f3 0f 1e fa          	endbr64 
    1284:	e9 77 ff ff ff       	jmp    1200 <register_tm_clones>

0000000000001289 <run_benchmark>:
    1289:	f3 0f 1e fa          	endbr64 
    128d:	41 57                	push   %r15
    128f:	41 56                	push   %r14
    1291:	41 55                	push   %r13
    1293:	41 54                	push   %r12
    1295:	55                   	push   %rbp
    1296:	53                   	push   %rbx
    1297:	48 81 ec 68 01 00 00 	sub    $0x168,%rsp
    129e:	48 89 7c 24 28       	mov    %rdi,0x28(%rsp)
    12a3:	49 89 f7             	mov    %rsi,%r15
    12a6:	49 89 d5             	mov    %rdx,%r13
    12a9:	49 89 cc             	mov    %rcx,%r12
    12ac:	64 48 8b 04 25 28 00 	mov    %fs:0x28,%rax
    12b3:	00 00 
    12b5:	48 89 84 24 58 01 00 	mov    %rax,0x158(%rsp)
    12bc:	00 
    12bd:	31 c0                	xor    %eax,%eax
    12bf:	48 89 d6             	mov    %rdx,%rsi
    12c2:	48 c1 e6 03          	shl    $0x3,%rsi
    12c6:	78 7b                	js     1343 <run_benchmark+0xba>
    12c8:	66 0f ef c0          	pxor   %xmm0,%xmm0
    12cc:	f3 48 0f 2a c6       	cvtsi2ss %rsi,%xmm0
    12d1:	f3 0f 5a c0          	cvtss2sd %xmm0,%xmm0
    12d5:	66 0f 28 e0          	movapd %xmm0,%xmm4
    12d9:	f2 0f 59 25 57 0e 00 	mulsd  0xe57(%rip),%xmm4        # 2138 <_IO_stdin_used+0x138>
    12e0:	00 
    12e1:	f2 0f 11 64 24 10    	movsd  %xmm4,0x10(%rsp)
    12e7:	66 0f 28 e8          	movapd %xmm0,%xmm5
    12eb:	f2 0f 59 2d 4d 0e 00 	mulsd  0xe4d(%rip),%xmm5        # 2140 <_IO_stdin_used+0x140>
    12f2:	00 
    12f3:	f2 0f 11 6c 24 18    	movsd  %xmm5,0x18(%rsp)
    12f9:	f2 0f 59 05 47 0e 00 	mulsd  0xe47(%rip),%xmm0        # 2148 <_IO_stdin_used+0x148>
    1300:	00 
    1301:	f2 0f 11 44 24 20    	movsd  %xmm0,0x20(%rsp)
    1307:	bf 40 00 00 00       	mov    $0x40,%edi
    130c:	e8 5f fe ff ff       	call   1170 <aligned_alloc@plt>
    1311:	49 89 c6             	mov    %rax,%r14
    1314:	ba 72 00 00 00       	mov    $0x72,%edx
    1319:	4c 89 ee             	mov    %r13,%rsi
    131c:	48 89 c7             	mov    %rax,%rdi
    131f:	e8 aa 03 00 00       	call   16ce <init_f64>
    1324:	48 8d 44 24 50       	lea    0x50(%rsp),%rax
    1329:	48 89 04 24          	mov    %rax,(%rsp)
    132d:	48 8d 84 24 58 01 00 	lea    0x158(%rsp),%rax
    1334:	00 
    1335:	48 89 44 24 08       	mov    %rax,0x8(%rsp)
    133a:	48 8b 2d ef 0d 00 00 	mov    0xdef(%rip),%rbp        # 2130 <_IO_stdin_used+0x130>
    1341:	eb 42                	jmp    1385 <run_benchmark+0xfc>
    1343:	48 89 f0             	mov    %rsi,%rax
    1346:	48 d1 e8             	shr    %rax
    1349:	66 0f ef c0          	pxor   %xmm0,%xmm0
    134d:	f3 48 0f 2a c0       	cvtsi2ss %rax,%xmm0
    1352:	f3 0f 58 c0          	addss  %xmm0,%xmm0
    1356:	e9 76 ff ff ff       	jmp    12d1 <run_benchmark+0x48>
    135b:	4c 89 e0             	mov    %r12,%rax
    135e:	48 d1 e8             	shr    %rax
    1361:	4c 89 e2             	mov    %r12,%rdx
    1364:	83 e2 01             	and    $0x1,%edx
    1367:	48 09 d0             	or     %rdx,%rax
    136a:	66 0f ef c9          	pxor   %xmm1,%xmm1
    136e:	f2 48 0f 2a c8       	cvtsi2sd %rax,%xmm1
    1373:	f2 0f 58 c9          	addsd  %xmm1,%xmm1
    1377:	f2 0f 5e c1          	divsd  %xmm1,%xmm0
    137b:	66 0f ef db          	pxor   %xmm3,%xmm3
    137f:	66 0f 2f d8          	comisd %xmm0,%xmm3
    1383:	72 66                	jb     13eb <run_benchmark+0x162>
    1385:	48 8d 74 24 30       	lea    0x30(%rsp),%rsi
    138a:	bf 04 00 00 00       	mov    $0x4,%edi
    138f:	e8 7c fd ff ff       	call   1110 <clock_gettime@plt>
    1394:	4d 85 e4             	test   %r12,%r12
    1397:	74 1c                	je     13b5 <run_benchmark+0x12c>
    1399:	bb 00 00 00 00       	mov    $0x0,%ebx
    139e:	4c 89 ee             	mov    %r13,%rsi
    13a1:	4c 89 f7             	mov    %r14,%rdi
    13a4:	41 ff d7             	call   *%r15
    13a7:	66 48 0f 7e c5       	movq   %xmm0,%rbp
    13ac:	48 83 c3 01          	add    $0x1,%rbx
    13b0:	49 39 dc             	cmp    %rbx,%r12
    13b3:	75 e9                	jne    139e <run_benchmark+0x115>
    13b5:	48 8d 74 24 40       	lea    0x40(%rsp),%rsi
    13ba:	bf 04 00 00 00       	mov    $0x4,%edi
    13bf:	e8 4c fd ff ff       	call   1110 <clock_gettime@plt>
    13c4:	48 8b 44 24 48       	mov    0x48(%rsp),%rax
    13c9:	48 2b 44 24 38       	sub    0x38(%rsp),%rax
    13ce:	66 0f ef c0          	pxor   %xmm0,%xmm0
    13d2:	f2 48 0f 2a c0       	cvtsi2sd %rax,%xmm0
    13d7:	4d 85 e4             	test   %r12,%r12
    13da:	0f 88 7b ff ff ff    	js     135b <run_benchmark+0xd2>
    13e0:	66 0f ef c9          	pxor   %xmm1,%xmm1
    13e4:	f2 49 0f 2a cc       	cvtsi2sd %r12,%xmm1
    13e9:	eb 8c                	jmp    1377 <run_benchmark+0xee>
    13eb:	48 8b 04 24          	mov    (%rsp),%rax
    13ef:	f2 0f 11 00          	movsd  %xmm0,(%rax)
    13f3:	48 83 c0 08          	add    $0x8,%rax
    13f7:	48 89 04 24          	mov    %rax,(%rsp)
    13fb:	48 3b 44 24 08       	cmp    0x8(%rsp),%rax
    1400:	75 83                	jne    1385 <run_benchmark+0xfc>
    1402:	4c 8d 7c 24 50       	lea    0x50(%rsp),%r15
    1407:	be 21 00 00 00       	mov    $0x21,%esi
    140c:	4c 89 ff             	mov    %r15,%rdi
    140f:	e8 93 03 00 00       	call   17a7 <sort_f64>
    1414:	f2 0f 10 74 24 50    	movsd  0x50(%rsp),%xmm6
    141a:	f2 0f 11 34 24       	movsd  %xmm6,(%rsp)
    141f:	f2 0f 10 ac 24 50 01 	movsd  0x150(%rsp),%xmm5
    1426:	00 00 
    1428:	f2 0f 11 6c 24 08    	movsd  %xmm5,0x8(%rsp)
    142e:	be 21 00 00 00       	mov    $0x21,%esi
    1433:	4c 89 ff             	mov    %r15,%rdi
    1436:	e8 ba 03 00 00       	call   17f5 <mean_f64>
    143b:	66 48 0f 7e c3       	movq   %xmm0,%rbx
    1440:	be 21 00 00 00       	mov    $0x21,%esi
    1445:	4c 89 ff             	mov    %r15,%rdi
    1448:	e8 fd 03 00 00       	call   184a <stddev_f64>
    144d:	66 0f 28 f8          	movapd %xmm0,%xmm7
    1451:	f2 0f 10 44 24 10    	movsd  0x10(%rsp),%xmm0
    1457:	f2 0f 58 c0          	addsd  %xmm0,%xmm0
    145b:	66 48 0f 6e d3       	movq   %rbx,%xmm2
    1460:	f2 0f 5e 15 e8 0c 00 	divsd  0xce8(%rip),%xmm2        # 2150 <_IO_stdin_used+0x150>
    1467:	00 
    1468:	f2 44 0f 10 44 24 18 	movsd  0x18(%rsp),%xmm8
    146f:	66 41 0f 28 c8       	movapd %xmm8,%xmm1
    1474:	f2 0f 5e ca          	divsd  %xmm2,%xmm1
    1478:	48 8d 64 24 f0       	lea    -0x10(%rsp),%rsp
    147d:	f2 0f 11 4c 24 08    	movsd  %xmm1,0x8(%rsp)
    1483:	66 0f 28 cf          	movapd %xmm7,%xmm1
    1487:	f2 0f 59 0d c9 0c 00 	mulsd  0xcc9(%rip),%xmm1        # 2158 <_IO_stdin_used+0x158>
    148e:	00 
    148f:	66 48 0f 6e d3       	movq   %rbx,%xmm2
    1494:	f2 0f 5e ca          	divsd  %xmm2,%xmm1
    1498:	f2 0f 11 0c 24       	movsd  %xmm1,(%rsp)
    149d:	66 48 0f 6e f3       	movq   %rbx,%xmm6
    14a2:	f2 0f 10 6c 24 18    	movsd  0x18(%rsp),%xmm5
    14a8:	f2 0f 10 64 24 10    	movsd  0x10(%rsp),%xmm4
    14ae:	66 48 0f 6e dd       	movq   %rbp,%xmm3
    14b3:	4d 89 e0             	mov    %r12,%r8
    14b6:	4c 89 e9             	mov    %r13,%rcx
    14b9:	f2 0f 10 54 24 30    	movsd  0x30(%rsp),%xmm2
    14bf:	f2 0f 58 d2          	addsd  %xmm2,%xmm2
    14c3:	66 41 0f 28 c8       	movapd %xmm8,%xmm1
    14c8:	f2 41 0f 58 c8       	addsd  %xmm8,%xmm1
    14cd:	48 8b 54 24 38       	mov    0x38(%rsp),%rdx
    14d2:	48 8d 35 2f 0b 00 00 	lea    0xb2f(%rip),%rsi        # 2008 <_IO_stdin_used+0x8>
    14d9:	bf 01 00 00 00       	mov    $0x1,%edi
    14de:	b8 08 00 00 00       	mov    $0x8,%eax
    14e3:	e8 78 fc ff ff       	call   1160 <__printf_chk@plt>
    14e8:	4c 89 f7             	mov    %r14,%rdi
    14eb:	e8 00 fc ff ff       	call   10f0 <free@plt>
    14f0:	48 83 c4 10          	add    $0x10,%rsp
    14f4:	48 8b 84 24 58 01 00 	mov    0x158(%rsp),%rax
    14fb:	00 
    14fc:	64 48 2b 04 25 28 00 	sub    %fs:0x28,%rax
    1503:	00 00 
    1505:	75 12                	jne    1519 <run_benchmark+0x290>
    1507:	48 81 c4 68 01 00 00 	add    $0x168,%rsp
    150e:	5b                   	pop    %rbx
    150f:	5d                   	pop    %rbp
    1510:	41 5c                	pop    %r12
    1512:	41 5d                	pop    %r13
    1514:	41 5e                	pop    %r14
    1516:	41 5f                	pop    %r15
    1518:	c3                   	ret    
    1519:	e8 12 fc ff ff       	call   1130 <__stack_chk_fail@plt>

000000000000151e <main>:
    151e:	f3 0f 1e fa          	endbr64 
    1522:	55                   	push   %rbp
    1523:	53                   	push   %rbx
    1524:	48 83 ec 08          	sub    $0x8,%rsp
    1528:	89 fd                	mov    %edi,%ebp
    152a:	48 89 f3             	mov    %rsi,%rbx
    152d:	e8 ee fb ff ff       	call   1120 <getpid@plt>
    1532:	89 c7                	mov    %eax,%edi
    1534:	e8 07 fc ff ff       	call   1140 <srand@plt>
    1539:	83 fd 02             	cmp    $0x2,%ebp
    153c:	0f 8e f9 00 00 00    	jle    163b <main+0x11d>
    1542:	48 8b 7b 08          	mov    0x8(%rbx),%rdi
    1546:	ba 0a 00 00 00       	mov    $0xa,%edx
    154b:	be 00 00 00 00       	mov    $0x0,%esi
    1550:	e8 fb fb ff ff       	call   1150 <strtoll@plt>
    1555:	48 89 c5             	mov    %rax,%rbp
    1558:	48 8b 7b 10          	mov    0x10(%rbx),%rdi
    155c:	ba 0a 00 00 00       	mov    $0xa,%edx
    1561:	be 00 00 00 00       	mov    $0x0,%esi
    1566:	e8 e5 fb ff ff       	call   1150 <strtoll@plt>
    156b:	48 89 c3             	mov    %rax,%rbx
    156e:	48 8d 05 78 0b 00 00 	lea    0xb78(%rip),%rax        # 20ed <_IO_stdin_used+0xed>
    1575:	50                   	push   %rax
    1576:	48 8d 05 76 0b 00 00 	lea    0xb76(%rip),%rax        # 20f3 <_IO_stdin_used+0xf3>
    157d:	50                   	push   %rax
    157e:	48 8d 05 79 0b 00 00 	lea    0xb79(%rip),%rax        # 20fe <_IO_stdin_used+0xfe>
    1585:	50                   	push   %rax
    1586:	48 8d 05 76 0b 00 00 	lea    0xb76(%rip),%rax        # 2103 <_IO_stdin_used+0x103>
    158d:	50                   	push   %rax
    158e:	48 8d 05 72 0b 00 00 	lea    0xb72(%rip),%rax        # 2107 <_IO_stdin_used+0x107>
    1595:	50                   	push   %rax
    1596:	48 8d 05 6e 0b 00 00 	lea    0xb6e(%rip),%rax        # 210b <_IO_stdin_used+0x10b>
    159d:	50                   	push   %rax
    159e:	48 8d 05 68 0b 00 00 	lea    0xb68(%rip),%rax        # 210d <_IO_stdin_used+0x10d>
    15a5:	50                   	push   %rax
    15a6:	48 8d 05 54 0b 00 00 	lea    0xb54(%rip),%rax        # 2101 <_IO_stdin_used+0x101>
    15ad:	50                   	push   %rax
    15ae:	4c 8d 0d 26 0b 00 00 	lea    0xb26(%rip),%r9        # 20db <_IO_stdin_used+0xdb>
    15b5:	4c 8d 05 23 0b 00 00 	lea    0xb23(%rip),%r8        # 20df <_IO_stdin_used+0xdf>
    15bc:	48 8d 0d 20 0b 00 00 	lea    0xb20(%rip),%rcx        # 20e3 <_IO_stdin_used+0xe3>
    15c3:	48 8d 15 1d 0b 00 00 	lea    0xb1d(%rip),%rdx        # 20e7 <_IO_stdin_used+0xe7>
    15ca:	48 8d 35 af 0a 00 00 	lea    0xaaf(%rip),%rsi        # 2080 <_IO_stdin_used+0x80>
    15d1:	bf 01 00 00 00       	mov    $0x1,%edi
    15d6:	b8 00 00 00 00       	mov    $0x0,%eax
    15db:	e8 80 fb ff ff       	call   1160 <__printf_chk@plt>
    15e0:	48 83 c4 40          	add    $0x40,%rsp
    15e4:	48 89 d9             	mov    %rbx,%rcx
    15e7:	48 89 ea             	mov    %rbp,%rdx
    15ea:	48 8d 35 ec 02 00 00 	lea    0x2ec(%rip),%rsi        # 18dd <reduc_base>
    15f1:	48 8d 3d 17 0b 00 00 	lea    0xb17(%rip),%rdi        # 210f <_IO_stdin_used+0x10f>
    15f8:	e8 8c fc ff ff       	call   1289 <run_benchmark>
    15fd:	48 89 d9             	mov    %rbx,%rcx
    1600:	48 89 ea             	mov    %rbp,%rdx
    1603:	48 8d 35 fa 02 00 00 	lea    0x2fa(%rip),%rsi        # 1904 <reduc_unroll4>
    160a:	48 8d 3d 03 0b 00 00 	lea    0xb03(%rip),%rdi        # 2114 <_IO_stdin_used+0x114>
    1611:	e8 73 fc ff ff       	call   1289 <run_benchmark>
    1616:	48 89 d9             	mov    %rbx,%rcx
    1619:	48 89 ea             	mov    %rbp,%rdx
    161c:	48 8d 35 36 03 00 00 	lea    0x336(%rip),%rsi        # 1959 <reduc_unroll8>
    1623:	48 8d 3d f8 0a 00 00 	lea    0xaf8(%rip),%rdi        # 2122 <_IO_stdin_used+0x122>
    162a:	e8 5a fc ff ff       	call   1289 <run_benchmark>
    162f:	b8 00 00 00 00       	mov    $0x0,%eax
    1634:	48 83 c4 08          	add    $0x8,%rsp
    1638:	5b                   	pop    %rbx
    1639:	5d                   	pop    %rbp
    163a:	c3                   	ret    
    163b:	48 8b 13             	mov    (%rbx),%rdx
    163e:	48 8d 35 83 0a 00 00 	lea    0xa83(%rip),%rsi        # 20c8 <_IO_stdin_used+0xc8>
    1645:	bf 01 00 00 00       	mov    $0x1,%edi
    164a:	b8 00 00 00 00       	mov    $0x0,%eax
    164f:	e8 0c fb ff ff       	call   1160 <__printf_chk@plt>
    1654:	b8 01 00 00 00       	mov    $0x1,%eax
    1659:	eb d9                	jmp    1634 <main+0x116>

000000000000165b <print_f64>:
    165b:	f3 0f 1e fa          	endbr64 
    165f:	41 55                	push   %r13
    1661:	41 54                	push   %r12
    1663:	55                   	push   %rbp
    1664:	53                   	push   %rbx
    1665:	48 83 ec 08          	sub    $0x8,%rsp
    1669:	48 85 f6             	test   %rsi,%rsi
    166c:	74 4b                	je     16b9 <print_f64+0x5e>
    166e:	49 89 fc             	mov    %rdi,%r12
    1671:	48 89 f5             	mov    %rsi,%rbp
    1674:	bb 00 00 00 00       	mov    $0x0,%ebx
    1679:	4c 8d 2d e0 0a 00 00 	lea    0xae0(%rip),%r13        # 2160 <_IO_stdin_used+0x160>
    1680:	48 83 c3 01          	add    $0x1,%rbx
    1684:	48 89 d8             	mov    %rbx,%rax
    1687:	ba 00 00 00 00       	mov    $0x0,%edx
    168c:	48 f7 f5             	div    %rbp
    168f:	48 83 fa 01          	cmp    $0x1,%rdx
    1693:	19 d2                	sbb    %edx,%edx
    1695:	83 e2 ea             	and    $0xffffffea,%edx
    1698:	83 c2 20             	add    $0x20,%edx
    169b:	f2 41 0f 10 44 dc f8 	movsd  -0x8(%r12,%rbx,8),%xmm0
    16a2:	4c 89 ee             	mov    %r13,%rsi
    16a5:	bf 01 00 00 00       	mov    $0x1,%edi
    16aa:	b8 01 00 00 00       	mov    $0x1,%eax
    16af:	e8 ac fa ff ff       	call   1160 <__printf_chk@plt>
    16b4:	48 39 eb             	cmp    %rbp,%rbx
    16b7:	75 c7                	jne    1680 <print_f64+0x25>
    16b9:	bf 0a 00 00 00       	mov    $0xa,%edi
    16be:	e8 3d fa ff ff       	call   1100 <putchar@plt>
    16c3:	48 83 c4 08          	add    $0x8,%rsp
    16c7:	5b                   	pop    %rbx
    16c8:	5d                   	pop    %rbp
    16c9:	41 5c                	pop    %r12
    16cb:	41 5d                	pop    %r13
    16cd:	c3                   	ret    

00000000000016ce <init_f64>:
    16ce:	f3 0f 1e fa          	endbr64 
    16d2:	8d 4a bd             	lea    -0x43(%rdx),%ecx
    16d5:	80 f9 37             	cmp    $0x37,%cl
    16d8:	0f 87 c8 00 00 00    	ja     17a6 <init_f64+0xd8>
    16de:	41 54                	push   %r12
    16e0:	55                   	push   %rbp
    16e1:	53                   	push   %rbx
    16e2:	49 89 fc             	mov    %rdi,%r12
    16e5:	48 89 f5             	mov    %rsi,%rbp
    16e8:	b8 01 00 00 00       	mov    $0x1,%eax
    16ed:	48 d3 e0             	shl    %cl,%rax
    16f0:	48 bb 00 00 80 00 00 	movabs $0x80000000800000,%rbx
    16f7:	00 80 00 
    16fa:	48 21 c3             	and    %rax,%rbx
    16fd:	75 23                	jne    1722 <init_f64+0x54>
    16ff:	48 ba 00 80 00 00 00 	movabs $0x800000008000,%rdx
    1706:	80 00 00 
    1709:	48 85 d0             	test   %rdx,%rax
    170c:	75 32                	jne    1740 <init_f64+0x72>
    170e:	48 ba 01 00 00 00 01 	movabs $0x100000001,%rdx
    1715:	00 00 00 
    1718:	48 85 d0             	test   %rdx,%rax
    171b:	75 52                	jne    176f <init_f64+0xa1>
    171d:	5b                   	pop    %rbx
    171e:	5d                   	pop    %rbp
    171f:	41 5c                	pop    %r12
    1721:	c3                   	ret    
    1722:	48 89 f8             	mov    %rdi,%rax
    1725:	48 8d 14 f7          	lea    (%rdi,%rsi,8),%rdx
    1729:	48 85 f6             	test   %rsi,%rsi
    172c:	74 ef                	je     171d <init_f64+0x4f>
    172e:	48 c7 00 00 00 00 00 	movq   $0x0,(%rax)
    1735:	48 83 c0 08          	add    $0x8,%rax
    1739:	48 39 c2             	cmp    %rax,%rdx
    173c:	75 f0                	jne    172e <init_f64+0x60>
    173e:	eb dd                	jmp    171d <init_f64+0x4f>
    1740:	48 85 f6             	test   %rsi,%rsi
    1743:	74 d8                	je     171d <init_f64+0x4f>
    1745:	e8 46 fa ff ff       	call   1190 <rand@plt>
    174a:	66 0f ef c9          	pxor   %xmm1,%xmm1
    174e:	f2 0f 2a c8          	cvtsi2sd %eax,%xmm1
    1752:	f2 0f 10 05 0e 0a 00 	movsd  0xa0e(%rip),%xmm0        # 2168 <_IO_stdin_used+0x168>
    1759:	00 
    175a:	f2 0f 5e c1          	divsd  %xmm1,%xmm0
    175e:	f2 41 0f 11 04 dc    	movsd  %xmm0,(%r12,%rbx,8)
    1764:	48 83 c3 01          	add    $0x1,%rbx
    1768:	48 39 dd             	cmp    %rbx,%rbp
    176b:	75 d8                	jne    1745 <init_f64+0x77>
    176d:	eb ae                	jmp    171d <init_f64+0x4f>
    176f:	e8 1c fa ff ff       	call   1190 <rand@plt>
    1774:	66 0f ef c9          	pxor   %xmm1,%xmm1
    1778:	f2 0f 2a c8          	cvtsi2sd %eax,%xmm1
    177c:	f2 0f 10 05 e4 09 00 	movsd  0x9e4(%rip),%xmm0        # 2168 <_IO_stdin_used+0x168>
    1783:	00 
    1784:	f2 0f 5e c1          	divsd  %xmm1,%xmm0
    1788:	48 85 ed             	test   %rbp,%rbp
    178b:	74 90                	je     171d <init_f64+0x4f>
    178d:	4c 89 e0             	mov    %r12,%rax
    1790:	49 8d 14 ec          	lea    (%r12,%rbp,8),%rdx
    1794:	f2 0f 11 00          	movsd  %xmm0,(%rax)
    1798:	48 83 c0 08          	add    $0x8,%rax
    179c:	48 39 d0             	cmp    %rdx,%rax
    179f:	75 f3                	jne    1794 <init_f64+0xc6>
    17a1:	e9 77 ff ff ff       	jmp    171d <init_f64+0x4f>
    17a6:	c3                   	ret    

00000000000017a7 <sort_f64>:
    17a7:	f3 0f 1e fa          	endbr64 
    17ab:	48 85 f6             	test   %rsi,%rsi
    17ae:	74 44                	je     17f4 <sort_f64+0x4d>
    17b0:	48 8d 57 08          	lea    0x8(%rdi),%rdx
    17b4:	48 8d 0c f7          	lea    (%rdi,%rsi,8),%rcx
    17b8:	bf 00 00 00 00       	mov    $0x0,%edi
    17bd:	eb 27                	jmp    17e6 <sort_f64+0x3f>
    17bf:	48 83 c0 08          	add    $0x8,%rax
    17c3:	48 39 c8             	cmp    %rcx,%rax
    17c6:	74 1a                	je     17e2 <sort_f64+0x3b>
    17c8:	f2 0f 10 42 f8       	movsd  -0x8(%rdx),%xmm0
    17cd:	f2 0f 10 08          	movsd  (%rax),%xmm1
    17d1:	66 0f 2f c1          	comisd %xmm1,%xmm0
    17d5:	76 e8                	jbe    17bf <sort_f64+0x18>
    17d7:	f2 0f 11 4a f8       	movsd  %xmm1,-0x8(%rdx)
    17dc:	f2 0f 11 00          	movsd  %xmm0,(%rax)
    17e0:	eb dd                	jmp    17bf <sort_f64+0x18>
    17e2:	48 83 c2 08          	add    $0x8,%rdx
    17e6:	48 83 c7 01          	add    $0x1,%rdi
    17ea:	48 39 fe             	cmp    %rdi,%rsi
    17ed:	74 05                	je     17f4 <sort_f64+0x4d>
    17ef:	48 89 d0             	mov    %rdx,%rax
    17f2:	eb d4                	jmp    17c8 <sort_f64+0x21>
    17f4:	c3                   	ret    

00000000000017f5 <mean_f64>:
    17f5:	f3 0f 1e fa          	endbr64 
    17f9:	48 85 f6             	test   %rsi,%rsi
    17fc:	74 2b                	je     1829 <mean_f64+0x34>
    17fe:	48 89 f8             	mov    %rdi,%rax
    1801:	48 8d 14 f7          	lea    (%rdi,%rsi,8),%rdx
    1805:	66 0f ef c0          	pxor   %xmm0,%xmm0
    1809:	f2 0f 58 00          	addsd  (%rax),%xmm0
    180d:	48 83 c0 08          	add    $0x8,%rax
    1811:	48 39 d0             	cmp    %rdx,%rax
    1814:	75 f3                	jne    1809 <mean_f64+0x14>
    1816:	48 85 f6             	test   %rsi,%rsi
    1819:	78 14                	js     182f <mean_f64+0x3a>
    181b:	66 0f ef c9          	pxor   %xmm1,%xmm1
    181f:	f2 48 0f 2a ce       	cvtsi2sd %rsi,%xmm1
    1824:	f2 0f 5e c1          	divsd  %xmm1,%xmm0
    1828:	c3                   	ret    
    1829:	66 0f ef c0          	pxor   %xmm0,%xmm0
    182d:	eb e7                	jmp    1816 <mean_f64+0x21>
    182f:	48 89 f0             	mov    %rsi,%rax
    1832:	48 d1 e8             	shr    %rax
    1835:	83 e6 01             	and    $0x1,%esi
    1838:	48 09 f0             	or     %rsi,%rax
    183b:	66 0f ef c9          	pxor   %xmm1,%xmm1
    183f:	f2 48 0f 2a c8       	cvtsi2sd %rax,%xmm1
    1844:	f2 0f 58 c9          	addsd  %xmm1,%xmm1
    1848:	eb da                	jmp    1824 <mean_f64+0x2f>

000000000000184a <stddev_f64>:
    184a:	f3 0f 1e fa          	endbr64 
    184e:	55                   	push   %rbp
    184f:	53                   	push   %rbx
    1850:	48 83 ec 08          	sub    $0x8,%rsp
    1854:	48 89 fd             	mov    %rdi,%rbp
    1857:	48 89 f3             	mov    %rsi,%rbx
    185a:	e8 96 ff ff ff       	call   17f5 <mean_f64>
    185f:	48 85 db             	test   %rbx,%rbx
    1862:	74 6c                	je     18d0 <stddev_f64+0x86>
    1864:	66 0f 28 d0          	movapd %xmm0,%xmm2
    1868:	48 89 e8             	mov    %rbp,%rax
    186b:	48 8d 54 dd 00       	lea    0x0(%rbp,%rbx,8),%rdx
    1870:	66 0f ef c0          	pxor   %xmm0,%xmm0
    1874:	f2 0f 10 08          	movsd  (%rax),%xmm1
    1878:	f2 0f 5c ca          	subsd  %xmm2,%xmm1
    187c:	f2 0f 59 c9          	mulsd  %xmm1,%xmm1
    1880:	f2 0f 58 c1          	addsd  %xmm1,%xmm0
    1884:	48 83 c0 08          	add    $0x8,%rax
    1888:	48 39 d0             	cmp    %rdx,%rax
    188b:	75 e7                	jne    1874 <stddev_f64+0x2a>
    188d:	48 83 eb 01          	sub    $0x1,%rbx
    1891:	78 22                	js     18b5 <stddev_f64+0x6b>
    1893:	66 0f ef c9          	pxor   %xmm1,%xmm1
    1897:	f2 48 0f 2a cb       	cvtsi2sd %rbx,%xmm1
    189c:	f2 0f 5e c1          	divsd  %xmm1,%xmm0
    18a0:	66 0f ef c9          	pxor   %xmm1,%xmm1
    18a4:	66 0f 2e c8          	ucomisd %xmm0,%xmm1
    18a8:	77 2c                	ja     18d6 <stddev_f64+0x8c>
    18aa:	f2 0f 51 c0          	sqrtsd %xmm0,%xmm0
    18ae:	48 83 c4 08          	add    $0x8,%rsp
    18b2:	5b                   	pop    %rbx
    18b3:	5d                   	pop    %rbp
    18b4:	c3                   	ret    
    18b5:	48 89 d8             	mov    %rbx,%rax
    18b8:	48 d1 e8             	shr    %rax
    18bb:	83 e3 01             	and    $0x1,%ebx
    18be:	48 09 d8             	or     %rbx,%rax
    18c1:	66 0f ef c9          	pxor   %xmm1,%xmm1
    18c5:	f2 48 0f 2a c8       	cvtsi2sd %rax,%xmm1
    18ca:	f2 0f 58 c9          	addsd  %xmm1,%xmm1
    18ce:	eb cc                	jmp    189c <stddev_f64+0x52>
    18d0:	66 0f ef c0          	pxor   %xmm0,%xmm0
    18d4:	eb d4                	jmp    18aa <stddev_f64+0x60>
    18d6:	e8 a5 f8 ff ff       	call   1180 <sqrt@plt>
    18db:	eb d1                	jmp    18ae <stddev_f64+0x64>

00000000000018dd <reduc_base>:
    18dd:	f3 0f 1e fa          	endbr64 
    18e1:	48 85 f6             	test   %rsi,%rsi
    18e4:	74 19                	je     18ff <reduc_base+0x22>
    18e6:	48 89 f8             	mov    %rdi,%rax
    18e9:	48 8d 14 f7          	lea    (%rdi,%rsi,8),%rdx
    18ed:	66 0f ef c0          	pxor   %xmm0,%xmm0
    18f1:	f2 0f 58 00          	addsd  (%rax),%xmm0
    18f5:	48 83 c0 08          	add    $0x8,%rax
    18f9:	48 39 d0             	cmp    %rdx,%rax
    18fc:	75 f3                	jne    18f1 <reduc_base+0x14>
    18fe:	c3                   	ret    
    18ff:	66 0f ef c0          	pxor   %xmm0,%xmm0
    1903:	c3                   	ret    

0000000000001904 <reduc_unroll4>:
    1904:	f3 0f 1e fa          	endbr64 
    1908:	48 89 f1             	mov    %rsi,%rcx
    190b:	48 83 e1 fc          	and    $0xfffffffffffffffc,%rcx
    190f:	74 42                	je     1953 <reduc_unroll4+0x4f>
    1911:	48 89 f8             	mov    %rdi,%rax
    1914:	48 8d 14 cf          	lea    (%rdi,%rcx,8),%rdx
    1918:	66 0f ef c0          	pxor   %xmm0,%xmm0
    191c:	f2 0f 58 00          	addsd  (%rax),%xmm0
    1920:	f2 0f 58 40 08       	addsd  0x8(%rax),%xmm0
    1925:	f2 0f 58 40 10       	addsd  0x10(%rax),%xmm0
    192a:	f2 0f 58 40 18       	addsd  0x18(%rax),%xmm0
    192f:	48 83 c0 08          	add    $0x8,%rax
    1933:	48 39 d0             	cmp    %rdx,%rax
    1936:	75 e4                	jne    191c <reduc_unroll4+0x18>
    1938:	48 39 ce             	cmp    %rcx,%rsi
    193b:	76 15                	jbe    1952 <reduc_unroll4+0x4e>
    193d:	48 8d 04 cf          	lea    (%rdi,%rcx,8),%rax
    1941:	48 8d 14 f7          	lea    (%rdi,%rsi,8),%rdx
    1945:	f2 0f 58 00          	addsd  (%rax),%xmm0
    1949:	48 83 c0 08          	add    $0x8,%rax
    194d:	48 39 d0             	cmp    %rdx,%rax
    1950:	75 f3                	jne    1945 <reduc_unroll4+0x41>
    1952:	c3                   	ret    
    1953:	66 0f ef c0          	pxor   %xmm0,%xmm0
    1957:	eb df                	jmp    1938 <reduc_unroll4+0x34>

0000000000001959 <reduc_unroll8>:
    1959:	f3 0f 1e fa          	endbr64 
    195d:	48 89 f9             	mov    %rdi,%rcx
    1960:	48 89 f7             	mov    %rsi,%rdi
    1963:	48 83 e7 f8          	and    $0xfffffffffffffff8,%rdi
    1967:	74 56                	je     19bf <reduc_unroll8+0x66>
    1969:	48 89 c8             	mov    %rcx,%rax
    196c:	48 8d 14 f9          	lea    (%rcx,%rdi,8),%rdx
    1970:	66 0f ef c0          	pxor   %xmm0,%xmm0
    1974:	f2 0f 58 00          	addsd  (%rax),%xmm0
    1978:	f2 0f 58 40 08       	addsd  0x8(%rax),%xmm0
    197d:	f2 0f 58 40 10       	addsd  0x10(%rax),%xmm0
    1982:	f2 0f 58 40 18       	addsd  0x18(%rax),%xmm0
    1987:	f2 0f 58 40 20       	addsd  0x20(%rax),%xmm0
    198c:	f2 0f 58 40 28       	addsd  0x28(%rax),%xmm0
    1991:	f2 0f 58 40 30       	addsd  0x30(%rax),%xmm0
    1996:	f2 0f 58 40 38       	addsd  0x38(%rax),%xmm0
    199b:	48 83 c0 08          	add    $0x8,%rax
    199f:	48 39 d0             	cmp    %rdx,%rax
    19a2:	75 d0                	jne    1974 <reduc_unroll8+0x1b>
    19a4:	48 39 fe             	cmp    %rdi,%rsi
    19a7:	76 15                	jbe    19be <reduc_unroll8+0x65>
    19a9:	48 8d 04 f9          	lea    (%rcx,%rdi,8),%rax
    19ad:	48 8d 14 f1          	lea    (%rcx,%rsi,8),%rdx
    19b1:	f2 0f 58 00          	addsd  (%rax),%xmm0
    19b5:	48 83 c0 08          	add    $0x8,%rax
    19b9:	48 39 d0             	cmp    %rdx,%rax
    19bc:	75 f3                	jne    19b1 <reduc_unroll8+0x58>
    19be:	c3                   	ret    
    19bf:	66 0f ef c0          	pxor   %xmm0,%xmm0
    19c3:	eb df                	jmp    19a4 <reduc_unroll8+0x4b>

Disassembly of section .fini:

00000000000019c8 <_fini>:
    19c8:	f3 0f 1e fa          	endbr64 
    19cc:	48 83 ec 08          	sub    $0x8,%rsp
    19d0:	48 83 c4 08          	add    $0x8,%rsp
    19d4:	c3                   	ret    
