
./reduc:     file format elf64-x86-64


Disassembly of section .init:

0000000000001000 <_init>:
    1000:	f3 0f 1e fa          	endbr64 
    1004:	48 83 ec 08          	sub    $0x8,%rsp
    1008:	48 8b 05 e1 2f 00 00 	mov    0x2fe1(%rip),%rax        # 3ff0 <__gmon_start__@Base>
    100f:	48 85 c0             	test   %rax,%rax
    1012:	74 02                	je     1016 <_init+0x16>
    1014:	ff d0                	call   *%rax
    1016:	48 83 c4 08          	add    $0x8,%rsp
    101a:	c3                   	ret    

Disassembly of section .plt:

0000000000001020 <printf@plt-0x10>:
    1020:	ff 35 e2 2f 00 00    	push   0x2fe2(%rip)        # 4008 <_GLOBAL_OFFSET_TABLE_+0x8>
    1026:	ff 25 e4 2f 00 00    	jmp    *0x2fe4(%rip)        # 4010 <_GLOBAL_OFFSET_TABLE_+0x10>
    102c:	0f 1f 40 00          	nopl   0x0(%rax)

0000000000001030 <printf@plt>:
    1030:	ff 25 e2 2f 00 00    	jmp    *0x2fe2(%rip)        # 4018 <printf@GLIBC_2.2.5>
    1036:	68 00 00 00 00       	push   $0x0
    103b:	e9 e0 ff ff ff       	jmp    1020 <_init+0x20>

0000000000001040 <strtoll@plt>:
    1040:	ff 25 da 2f 00 00    	jmp    *0x2fda(%rip)        # 4020 <strtoll@GLIBC_2.2.5>
    1046:	68 01 00 00 00       	push   $0x1
    104b:	e9 d0 ff ff ff       	jmp    1020 <_init+0x20>

0000000000001050 <rand@plt>:
    1050:	ff 25 d2 2f 00 00    	jmp    *0x2fd2(%rip)        # 4028 <rand@GLIBC_2.2.5>
    1056:	68 02 00 00 00       	push   $0x2
    105b:	e9 c0 ff ff ff       	jmp    1020 <_init+0x20>

0000000000001060 <memset@plt>:
    1060:	ff 25 ca 2f 00 00    	jmp    *0x2fca(%rip)        # 4030 <memset@GLIBC_2.2.5>
    1066:	68 03 00 00 00       	push   $0x3
    106b:	e9 b0 ff ff ff       	jmp    1020 <_init+0x20>

0000000000001070 <aligned_alloc@plt>:
    1070:	ff 25 c2 2f 00 00    	jmp    *0x2fc2(%rip)        # 4038 <aligned_alloc@GLIBC_2.16>
    1076:	68 04 00 00 00       	push   $0x4
    107b:	e9 a0 ff ff ff       	jmp    1020 <_init+0x20>

0000000000001080 <sqrt@plt>:
    1080:	ff 25 ba 2f 00 00    	jmp    *0x2fba(%rip)        # 4040 <sqrt@GLIBC_2.2.5>
    1086:	68 05 00 00 00       	push   $0x5
    108b:	e9 90 ff ff ff       	jmp    1020 <_init+0x20>

0000000000001090 <clock_gettime@plt>:
    1090:	ff 25 b2 2f 00 00    	jmp    *0x2fb2(%rip)        # 4048 <clock_gettime@GLIBC_2.17>
    1096:	68 06 00 00 00       	push   $0x6
    109b:	e9 80 ff ff ff       	jmp    1020 <_init+0x20>

00000000000010a0 <srand@plt>:
    10a0:	ff 25 aa 2f 00 00    	jmp    *0x2faa(%rip)        # 4050 <srand@GLIBC_2.2.5>
    10a6:	68 07 00 00 00       	push   $0x7
    10ab:	e9 70 ff ff ff       	jmp    1020 <_init+0x20>

00000000000010b0 <free@plt>:
    10b0:	ff 25 a2 2f 00 00    	jmp    *0x2fa2(%rip)        # 4058 <free@GLIBC_2.2.5>
    10b6:	68 08 00 00 00       	push   $0x8
    10bb:	e9 60 ff ff ff       	jmp    1020 <_init+0x20>

00000000000010c0 <putchar@plt>:
    10c0:	ff 25 9a 2f 00 00    	jmp    *0x2f9a(%rip)        # 4060 <putchar@GLIBC_2.2.5>
    10c6:	68 09 00 00 00       	push   $0x9
    10cb:	e9 50 ff ff ff       	jmp    1020 <_init+0x20>

00000000000010d0 <getpid@plt>:
    10d0:	ff 25 92 2f 00 00    	jmp    *0x2f92(%rip)        # 4068 <getpid@GLIBC_2.2.5>
    10d6:	68 0a 00 00 00       	push   $0xa
    10db:	e9 40 ff ff ff       	jmp    1020 <_init+0x20>

Disassembly of section .plt.got:

00000000000010e0 <__cxa_finalize@plt>:
    10e0:	ff 25 f2 2e 00 00    	jmp    *0x2ef2(%rip)        # 3fd8 <__cxa_finalize@GLIBC_2.2.5>
    10e6:	66 90                	xchg   %ax,%ax

Disassembly of section .text:

00000000000010f0 <_start>:
    10f0:	f3 0f 1e fa          	endbr64 
    10f4:	31 ed                	xor    %ebp,%ebp
    10f6:	49 89 d1             	mov    %rdx,%r9
    10f9:	5e                   	pop    %rsi
    10fa:	48 89 e2             	mov    %rsp,%rdx
    10fd:	48 83 e4 f0          	and    $0xfffffffffffffff0,%rsp
    1101:	50                   	push   %rax
    1102:	54                   	push   %rsp
    1103:	45 31 c0             	xor    %r8d,%r8d
    1106:	31 c9                	xor    %ecx,%ecx
    1108:	48 8d 3d d1 00 00 00 	lea    0xd1(%rip),%rdi        # 11e0 <main>
    110f:	ff 15 cb 2e 00 00    	call   *0x2ecb(%rip)        # 3fe0 <__libc_start_main@GLIBC_2.34>
    1115:	f4                   	hlt    
    1116:	66 2e 0f 1f 84 00 00 	cs nopw 0x0(%rax,%rax,1)
    111d:	00 00 00 

0000000000001120 <deregister_tm_clones>:
    1120:	48 8d 3d 59 2f 00 00 	lea    0x2f59(%rip),%rdi        # 4080 <__TMC_END__>
    1127:	48 8d 05 52 2f 00 00 	lea    0x2f52(%rip),%rax        # 4080 <__TMC_END__>
    112e:	48 39 f8             	cmp    %rdi,%rax
    1131:	74 15                	je     1148 <deregister_tm_clones+0x28>
    1133:	48 8b 05 ae 2e 00 00 	mov    0x2eae(%rip),%rax        # 3fe8 <_ITM_deregisterTMCloneTable@Base>
    113a:	48 85 c0             	test   %rax,%rax
    113d:	74 09                	je     1148 <deregister_tm_clones+0x28>
    113f:	ff e0                	jmp    *%rax
    1141:	0f 1f 80 00 00 00 00 	nopl   0x0(%rax)
    1148:	c3                   	ret    
    1149:	0f 1f 80 00 00 00 00 	nopl   0x0(%rax)

0000000000001150 <register_tm_clones>:
    1150:	48 8d 3d 29 2f 00 00 	lea    0x2f29(%rip),%rdi        # 4080 <__TMC_END__>
    1157:	48 8d 35 22 2f 00 00 	lea    0x2f22(%rip),%rsi        # 4080 <__TMC_END__>
    115e:	48 29 fe             	sub    %rdi,%rsi
    1161:	48 89 f0             	mov    %rsi,%rax
    1164:	48 c1 ee 3f          	shr    $0x3f,%rsi
    1168:	48 c1 f8 03          	sar    $0x3,%rax
    116c:	48 01 c6             	add    %rax,%rsi
    116f:	48 d1 fe             	sar    %rsi
    1172:	74 14                	je     1188 <register_tm_clones+0x38>
    1174:	48 8b 05 7d 2e 00 00 	mov    0x2e7d(%rip),%rax        # 3ff8 <_ITM_registerTMCloneTable@Base>
    117b:	48 85 c0             	test   %rax,%rax
    117e:	74 08                	je     1188 <register_tm_clones+0x38>
    1180:	ff e0                	jmp    *%rax
    1182:	66 0f 1f 44 00 00    	nopw   0x0(%rax,%rax,1)
    1188:	c3                   	ret    
    1189:	0f 1f 80 00 00 00 00 	nopl   0x0(%rax)

0000000000001190 <__do_global_dtors_aux>:
    1190:	f3 0f 1e fa          	endbr64 
    1194:	80 3d e5 2e 00 00 00 	cmpb   $0x0,0x2ee5(%rip)        # 4080 <__TMC_END__>
    119b:	75 2b                	jne    11c8 <__do_global_dtors_aux+0x38>
    119d:	55                   	push   %rbp
    119e:	48 83 3d 32 2e 00 00 	cmpq   $0x0,0x2e32(%rip)        # 3fd8 <__cxa_finalize@GLIBC_2.2.5>
    11a5:	00 
    11a6:	48 89 e5             	mov    %rsp,%rbp
    11a9:	74 0c                	je     11b7 <__do_global_dtors_aux+0x27>
    11ab:	48 8b 3d c6 2e 00 00 	mov    0x2ec6(%rip),%rdi        # 4078 <__dso_handle>
    11b2:	e8 29 ff ff ff       	call   10e0 <__cxa_finalize@plt>
    11b7:	e8 64 ff ff ff       	call   1120 <deregister_tm_clones>
    11bc:	c6 05 bd 2e 00 00 01 	movb   $0x1,0x2ebd(%rip)        # 4080 <__TMC_END__>
    11c3:	5d                   	pop    %rbp
    11c4:	c3                   	ret    
    11c5:	0f 1f 00             	nopl   (%rax)
    11c8:	c3                   	ret    
    11c9:	0f 1f 80 00 00 00 00 	nopl   0x0(%rax)

00000000000011d0 <frame_dummy>:
    11d0:	f3 0f 1e fa          	endbr64 
    11d4:	e9 77 ff ff ff       	jmp    1150 <register_tm_clones>
    11d9:	0f 1f 80 00 00 00 00 	nopl   0x0(%rax)

00000000000011e0 <main>:
    11e0:	55                   	push   %rbp
    11e1:	41 57                	push   %r15
    11e3:	41 56                	push   %r14
    11e5:	41 55                	push   %r13
    11e7:	41 54                	push   %r12
    11e9:	53                   	push   %rbx
    11ea:	48 81 ec c8 01 00 00 	sub    $0x1c8,%rsp
    11f1:	48 89 f3             	mov    %rsi,%rbx
    11f4:	89 fd                	mov    %edi,%ebp
    11f6:	e8 d5 fe ff ff       	call   10d0 <getpid@plt>
    11fb:	89 c7                	mov    %eax,%edi
    11fd:	e8 9e fe ff ff       	call   10a0 <srand@plt>
    1202:	83 fd 02             	cmp    $0x2,%ebp
    1205:	7f 1b                	jg     1222 <main+0x42>
    1207:	48 8b 33             	mov    (%rbx),%rsi
    120a:	48 8d 3d 4f 0e 00 00 	lea    0xe4f(%rip),%rdi        # 2060 <_IO_stdin_used+0x60>
    1211:	31 c0                	xor    %eax,%eax
    1213:	e8 18 fe ff ff       	call   1030 <printf@plt>
    1218:	b8 01 00 00 00       	mov    $0x1,%eax
    121d:	e9 85 06 00 00       	jmp    18a7 <main+0x6c7>
    1222:	48 8b 7b 08          	mov    0x8(%rbx),%rdi
    1226:	45 31 f6             	xor    %r14d,%r14d
    1229:	31 f6                	xor    %esi,%esi
    122b:	ba 0a 00 00 00       	mov    $0xa,%edx
    1230:	e8 0b fe ff ff       	call   1040 <strtoll@plt>
    1235:	49 89 c5             	mov    %rax,%r13
    1238:	48 8b 7b 10          	mov    0x10(%rbx),%rdi
    123c:	31 f6                	xor    %esi,%esi
    123e:	ba 0a 00 00 00       	mov    $0xa,%edx
    1243:	e8 f8 fd ff ff       	call   1040 <strtoll@plt>
    1248:	48 89 c5             	mov    %rax,%rbp
    124b:	48 8d 05 97 0e 00 00 	lea    0xe97(%rip),%rax        # 20e9 <_IO_stdin_used+0xe9>
    1252:	48 89 44 24 30       	mov    %rax,0x30(%rsp)
    1257:	48 8d 05 80 0e 00 00 	lea    0xe80(%rip),%rax        # 20de <_IO_stdin_used+0xde>
    125e:	48 89 44 24 28       	mov    %rax,0x28(%rsp)
    1263:	48 8d 05 6f 0e 00 00 	lea    0xe6f(%rip),%rax        # 20d9 <_IO_stdin_used+0xd9>
    126a:	48 89 44 24 20       	mov    %rax,0x20(%rsp)
    126f:	48 8d 05 5f 0e 00 00 	lea    0xe5f(%rip),%rax        # 20d5 <_IO_stdin_used+0xd5>
    1276:	48 89 44 24 18       	mov    %rax,0x18(%rsp)
    127b:	48 8d 05 4f 0e 00 00 	lea    0xe4f(%rip),%rax        # 20d1 <_IO_stdin_used+0xd1>
    1282:	48 89 44 24 10       	mov    %rax,0x10(%rsp)
    1287:	48 8d 05 41 0e 00 00 	lea    0xe41(%rip),%rax        # 20cf <_IO_stdin_used+0xcf>
    128e:	48 89 44 24 08       	mov    %rax,0x8(%rsp)
    1293:	48 8d 05 33 0e 00 00 	lea    0xe33(%rip),%rax        # 20cd <_IO_stdin_used+0xcd>
    129a:	48 89 04 24          	mov    %rax,(%rsp)
    129e:	48 8d 3d ce 0d 00 00 	lea    0xdce(%rip),%rdi        # 2073 <_IO_stdin_used+0x73>
    12a5:	48 8d 35 0f 0e 00 00 	lea    0xe0f(%rip),%rsi        # 20bb <_IO_stdin_used+0xbb>
    12ac:	48 8d 15 0e 0e 00 00 	lea    0xe0e(%rip),%rdx        # 20c1 <_IO_stdin_used+0xc1>
    12b3:	48 8d 0d 0b 0e 00 00 	lea    0xe0b(%rip),%rcx        # 20c5 <_IO_stdin_used+0xc5>
    12ba:	4c 8d 05 08 0e 00 00 	lea    0xe08(%rip),%r8        # 20c9 <_IO_stdin_used+0xc9>
    12c1:	4c 8d 0d 14 0e 00 00 	lea    0xe14(%rip),%r9        # 20dc <_IO_stdin_used+0xdc>
    12c8:	31 c0                	xor    %eax,%eax
    12ca:	e8 61 fd ff ff       	call   1030 <printf@plt>
    12cf:	4a 8d 34 ed 00 00 00 	lea    0x0(,%r13,8),%rsi
    12d6:	00 
    12d7:	48 85 f6             	test   %rsi,%rsi
    12da:	78 07                	js     12e3 <main+0x103>
    12dc:	f3 48 0f 2a c6       	cvtsi2ss %rsi,%xmm0
    12e1:	eb 0f                	jmp    12f2 <main+0x112>
    12e3:	48 89 f0             	mov    %rsi,%rax
    12e6:	48 d1 e8             	shr    %rax
    12e9:	f3 48 0f 2a c0       	cvtsi2ss %rax,%xmm0
    12ee:	f3 0f 58 c0          	addss  %xmm0,%xmm0
    12f2:	f3 0f 11 44 24 50    	movss  %xmm0,0x50(%rsp)
    12f8:	bf 40 00 00 00       	mov    $0x40,%edi
    12fd:	48 89 74 24 58       	mov    %rsi,0x58(%rsp)
    1302:	e8 69 fd ff ff       	call   1070 <aligned_alloc@plt>
    1307:	49 89 c4             	mov    %rax,%r12
    130a:	48 89 c7             	mov    %rax,%rdi
    130d:	4c 89 ee             	mov    %r13,%rsi
    1310:	ba 72 00 00 00       	mov    $0x72,%edx
    1315:	e8 96 08 00 00       	call   1bb0 <init_f64>
    131a:	66 48 0f 6e c5       	movq   %rbp,%xmm0
    131f:	66 0f 62 05 e9 0c 00 	punpckldq 0xce9(%rip),%xmm0        # 2010 <_IO_stdin_used+0x10>
    1326:	00 
    1327:	66 0f 5c 05 f1 0c 00 	subpd  0xcf1(%rip),%xmm0        # 2020 <_IO_stdin_used+0x20>
    132e:	00 
    132f:	66 0f 28 c8          	movapd %xmm0,%xmm1
    1333:	66 0f 15 c8          	unpckhpd %xmm0,%xmm1
    1337:	f2 0f 58 c8          	addsd  %xmm0,%xmm1
    133b:	66 0f 29 8c 24 80 00 	movapd %xmm1,0x80(%rsp)
    1342:	00 00 
    1344:	4c 8d bc 24 b0 00 00 	lea    0xb0(%rsp),%r15
    134b:	00 
    134c:	48 8d 9c 24 a0 00 00 	lea    0xa0(%rsp),%rbx
    1353:	00 
    1354:	66 0f 57 c0          	xorpd  %xmm0,%xmm0
    1358:	f2 0f 11 44 24 48    	movsd  %xmm0,0x48(%rsp)
    135e:	eb 19                	jmp    1379 <main+0x199>
    1360:	4c 8b 74 24 40       	mov    0x40(%rsp),%r14
    1365:	f2 42 0f 11 84 f4 c0 	movsd  %xmm0,0xc0(%rsp,%r14,8)
    136c:	00 00 00 
    136f:	49 83 c6 01          	add    $0x1,%r14
    1373:	49 83 fe 21          	cmp    $0x21,%r14
    1377:	74 7a                	je     13f3 <main+0x213>
    1379:	4c 89 74 24 40       	mov    %r14,0x40(%rsp)
    137e:	eb 3e                	jmp    13be <main+0x1de>
    1380:	f2 0f 11 44 24 48    	movsd  %xmm0,0x48(%rsp)
    1386:	bf 04 00 00 00       	mov    $0x4,%edi
    138b:	48 89 de             	mov    %rbx,%rsi
    138e:	e8 fd fc ff ff       	call   1090 <clock_gettime@plt>
    1393:	48 8b 84 24 a8 00 00 	mov    0xa8(%rsp),%rax
    139a:	00 
    139b:	48 2b 84 24 b8 00 00 	sub    0xb8(%rsp),%rax
    13a2:	00 
    13a3:	0f 57 c0             	xorps  %xmm0,%xmm0
    13a6:	f2 48 0f 2a c0       	cvtsi2sd %rax,%xmm0
    13ab:	f2 0f 5e 84 24 80 00 	divsd  0x80(%rsp),%xmm0
    13b2:	00 00 
    13b4:	66 0f 57 c9          	xorpd  %xmm1,%xmm1
    13b8:	66 0f 2e c8          	ucomisd %xmm0,%xmm1
    13bc:	72 a2                	jb     1360 <main+0x180>
    13be:	bf 04 00 00 00       	mov    $0x4,%edi
    13c3:	4c 89 fe             	mov    %r15,%rsi
    13c6:	e8 c5 fc ff ff       	call   1090 <clock_gettime@plt>
    13cb:	49 89 ee             	mov    %rbp,%r14
    13ce:	48 85 ed             	test   %rbp,%rbp
    13d1:	f2 0f 10 44 24 48    	movsd  0x48(%rsp),%xmm0
    13d7:	74 a7                	je     1380 <main+0x1a0>
    13d9:	0f 1f 80 00 00 00 00 	nopl   0x0(%rax)
    13e0:	4c 89 e7             	mov    %r12,%rdi
    13e3:	4c 89 ee             	mov    %r13,%rsi
    13e6:	e8 e5 09 00 00       	call   1dd0 <reduc_base>
    13eb:	49 83 c6 ff          	add    $0xffffffffffffffff,%r14
    13ef:	75 ef                	jne    13e0 <main+0x200>
    13f1:	eb 8d                	jmp    1380 <main+0x1a0>
    13f3:	f3 0f 10 44 24 50    	movss  0x50(%rsp),%xmm0
    13f9:	f3 0f 5a c0          	cvtss2sd %xmm0,%xmm0
    13fd:	f2 0f 10 0d 2b 0c 00 	movsd  0xc2b(%rip),%xmm1        # 2030 <_IO_stdin_used+0x30>
    1404:	00 
    1405:	f2 0f 59 c8          	mulsd  %xmm0,%xmm1
    1409:	f2 0f 11 4c 24 78    	movsd  %xmm1,0x78(%rsp)
    140f:	f2 0f 10 0d 21 0c 00 	movsd  0xc21(%rip),%xmm1        # 2038 <_IO_stdin_used+0x38>
    1416:	00 
    1417:	f2 0f 59 c8          	mulsd  %xmm0,%xmm1
    141b:	f2 0f 11 4c 24 60    	movsd  %xmm1,0x60(%rsp)
    1421:	f2 0f 59 05 17 0c 00 	mulsd  0xc17(%rip),%xmm0        # 2040 <_IO_stdin_used+0x40>
    1428:	00 
    1429:	f2 0f 11 44 24 50    	movsd  %xmm0,0x50(%rsp)
    142f:	48 8d 9c 24 c0 00 00 	lea    0xc0(%rsp),%rbx
    1436:	00 
    1437:	be 21 00 00 00       	mov    $0x21,%esi
    143c:	48 89 df             	mov    %rbx,%rdi
    143f:	e8 1c 08 00 00       	call   1c60 <sort_f64>
    1444:	f2 0f 10 84 24 c0 00 	movsd  0xc0(%rsp),%xmm0
    144b:	00 00 
    144d:	f2 0f 11 44 24 40    	movsd  %xmm0,0x40(%rsp)
    1453:	f2 0f 10 84 24 c0 01 	movsd  0x1c0(%rsp),%xmm0
    145a:	00 00 
    145c:	f2 0f 11 44 24 70    	movsd  %xmm0,0x70(%rsp)
    1462:	be 21 00 00 00       	mov    $0x21,%esi
    1467:	48 89 df             	mov    %rbx,%rdi
    146a:	e8 51 08 00 00       	call   1cc0 <mean_f64>
    146f:	f2 0f 11 44 24 68    	movsd  %xmm0,0x68(%rsp)
    1475:	be 21 00 00 00       	mov    $0x21,%esi
    147a:	48 89 df             	mov    %rbx,%rdi
    147d:	e8 8e 08 00 00       	call   1d10 <stddev_f64>
    1482:	f2 0f 10 6c 24 68    	movsd  0x68(%rsp),%xmm5
    1488:	66 0f 28 cd          	movapd %xmm5,%xmm1
    148c:	f2 0f 5e 0d b4 0b 00 	divsd  0xbb4(%rip),%xmm1        # 2048 <_IO_stdin_used+0x48>
    1493:	00 
    1494:	66 0f 28 f8          	movapd %xmm0,%xmm7
    1498:	f2 0f 10 54 24 78    	movsd  0x78(%rsp),%xmm2
    149e:	66 0f 28 c2          	movapd %xmm2,%xmm0
    14a2:	f2 0f 5e c1          	divsd  %xmm1,%xmm0
    14a6:	f2 0f 10 64 24 50    	movsd  0x50(%rsp),%xmm4
    14ac:	f2 0f 58 e4          	addsd  %xmm4,%xmm4
    14b0:	66 0f 28 ca          	movapd %xmm2,%xmm1
    14b4:	f2 0f 58 ca          	addsd  %xmm2,%xmm1
    14b8:	f2 0f 10 5c 24 60    	movsd  0x60(%rsp),%xmm3
    14be:	f2 0f 58 db          	addsd  %xmm3,%xmm3
    14c2:	f2 0f 10 15 86 0b 00 	movsd  0xb86(%rip),%xmm2        # 2050 <_IO_stdin_used+0x50>
    14c9:	00 
    14ca:	f2 0f 59 d7          	mulsd  %xmm7,%xmm2
    14ce:	f2 0f 5e d5          	divsd  %xmm5,%xmm2
    14d2:	66 0f 28 f5          	movapd %xmm5,%xmm6
    14d6:	f2 0f 11 44 24 08    	movsd  %xmm0,0x8(%rsp)
    14dc:	f2 0f 11 14 24       	movsd  %xmm2,(%rsp)
    14e1:	48 8d 3d 27 0c 00 00 	lea    0xc27(%rip),%rdi        # 210f <_IO_stdin_used+0x10f>
    14e8:	48 8d 35 00 0c 00 00 	lea    0xc00(%rip),%rsi        # 20ef <_IO_stdin_used+0xef>
    14ef:	66 0f 28 c4          	movapd %xmm4,%xmm0
    14f3:	f2 0f 11 64 24 50    	movsd  %xmm4,0x50(%rsp)
    14f9:	f2 0f 11 8c 24 98 00 	movsd  %xmm1,0x98(%rsp)
    1500:	00 00 
    1502:	66 0f 28 d3          	movapd %xmm3,%xmm2
    1506:	f2 0f 11 5c 24 60    	movsd  %xmm3,0x60(%rsp)
    150c:	4c 89 ea             	mov    %r13,%rdx
    150f:	48 89 e9             	mov    %rbp,%rcx
    1512:	f2 0f 10 5c 24 48    	movsd  0x48(%rsp),%xmm3
    1518:	f2 0f 10 64 24 40    	movsd  0x40(%rsp),%xmm4
    151e:	f2 0f 10 6c 24 70    	movsd  0x70(%rsp),%xmm5
    1524:	b0 08                	mov    $0x8,%al
    1526:	e8 05 fb ff ff       	call   1030 <printf@plt>
    152b:	4c 89 e7             	mov    %r12,%rdi
    152e:	e8 7d fb ff ff       	call   10b0 <free@plt>
    1533:	bf 40 00 00 00       	mov    $0x40,%edi
    1538:	48 8b 74 24 58       	mov    0x58(%rsp),%rsi
    153d:	e8 2e fb ff ff       	call   1070 <aligned_alloc@plt>
    1542:	48 89 c3             	mov    %rax,%rbx
    1545:	48 89 c7             	mov    %rax,%rdi
    1548:	4c 89 ee             	mov    %r13,%rsi
    154b:	ba 72 00 00 00       	mov    $0x72,%edx
    1550:	e8 5b 06 00 00       	call   1bb0 <init_f64>
    1555:	31 c0                	xor    %eax,%eax
    1557:	4c 8d a4 24 b0 00 00 	lea    0xb0(%rsp),%r12
    155e:	00 
    155f:	4c 8d b4 24 a0 00 00 	lea    0xa0(%rsp),%r14
    1566:	00 
    1567:	66 0f 57 c0          	xorpd  %xmm0,%xmm0
    156b:	f2 0f 11 44 24 48    	movsd  %xmm0,0x48(%rsp)
    1571:	eb 25                	jmp    1598 <main+0x3b8>
    1573:	66 2e 0f 1f 84 00 00 	cs nopw 0x0(%rax,%rax,1)
    157a:	00 00 00 
    157d:	0f 1f 00             	nopl   (%rax)
    1580:	48 8b 44 24 40       	mov    0x40(%rsp),%rax
    1585:	f2 0f 11 84 c4 c0 00 	movsd  %xmm0,0xc0(%rsp,%rax,8)
    158c:	00 00 
    158e:	48 83 c0 01          	add    $0x1,%rax
    1592:	48 83 f8 21          	cmp    $0x21,%rax
    1596:	74 7b                	je     1613 <main+0x433>
    1598:	48 89 44 24 40       	mov    %rax,0x40(%rsp)
    159d:	eb 3f                	jmp    15de <main+0x3fe>
    159f:	90                   	nop
    15a0:	f2 0f 11 44 24 48    	movsd  %xmm0,0x48(%rsp)
    15a6:	bf 04 00 00 00       	mov    $0x4,%edi
    15ab:	4c 89 f6             	mov    %r14,%rsi
    15ae:	e8 dd fa ff ff       	call   1090 <clock_gettime@plt>
    15b3:	48 8b 84 24 a8 00 00 	mov    0xa8(%rsp),%rax
    15ba:	00 
    15bb:	48 2b 84 24 b8 00 00 	sub    0xb8(%rsp),%rax
    15c2:	00 
    15c3:	0f 57 c0             	xorps  %xmm0,%xmm0
    15c6:	f2 48 0f 2a c0       	cvtsi2sd %rax,%xmm0
    15cb:	f2 0f 5e 84 24 80 00 	divsd  0x80(%rsp),%xmm0
    15d2:	00 00 
    15d4:	66 0f 57 c9          	xorpd  %xmm1,%xmm1
    15d8:	66 0f 2e c8          	ucomisd %xmm0,%xmm1
    15dc:	72 a2                	jb     1580 <main+0x3a0>
    15de:	bf 04 00 00 00       	mov    $0x4,%edi
    15e3:	4c 89 e6             	mov    %r12,%rsi
    15e6:	e8 a5 fa ff ff       	call   1090 <clock_gettime@plt>
    15eb:	49 89 ef             	mov    %rbp,%r15
    15ee:	48 85 ed             	test   %rbp,%rbp
    15f1:	f2 0f 10 44 24 48    	movsd  0x48(%rsp),%xmm0
    15f7:	74 a7                	je     15a0 <main+0x3c0>
    15f9:	0f 1f 80 00 00 00 00 	nopl   0x0(%rax)
    1600:	48 89 df             	mov    %rbx,%rdi
    1603:	4c 89 ee             	mov    %r13,%rsi
    1606:	e8 e5 07 00 00       	call   1df0 <reduc_unroll4>
    160b:	49 83 c7 ff          	add    $0xffffffffffffffff,%r15
    160f:	75 ef                	jne    1600 <main+0x420>
    1611:	eb 8d                	jmp    15a0 <main+0x3c0>
    1613:	4c 8d b4 24 c0 00 00 	lea    0xc0(%rsp),%r14
    161a:	00 
    161b:	be 21 00 00 00       	mov    $0x21,%esi
    1620:	4c 89 f7             	mov    %r14,%rdi
    1623:	e8 38 06 00 00       	call   1c60 <sort_f64>
    1628:	f2 0f 10 84 24 c0 00 	movsd  0xc0(%rsp),%xmm0
    162f:	00 00 
    1631:	f2 0f 11 44 24 40    	movsd  %xmm0,0x40(%rsp)
    1637:	f2 0f 10 84 24 c0 01 	movsd  0x1c0(%rsp),%xmm0
    163e:	00 00 
    1640:	f2 0f 11 44 24 70    	movsd  %xmm0,0x70(%rsp)
    1646:	be 21 00 00 00       	mov    $0x21,%esi
    164b:	4c 89 f7             	mov    %r14,%rdi
    164e:	e8 6d 06 00 00       	call   1cc0 <mean_f64>
    1653:	f2 0f 11 44 24 68    	movsd  %xmm0,0x68(%rsp)
    1659:	be 21 00 00 00       	mov    $0x21,%esi
    165e:	4c 89 f7             	mov    %r14,%rdi
    1661:	e8 aa 06 00 00       	call   1d10 <stddev_f64>
    1666:	66 0f 28 f8          	movapd %xmm0,%xmm7
    166a:	f2 0f 10 54 24 68    	movsd  0x68(%rsp),%xmm2
    1670:	66 0f 28 c2          	movapd %xmm2,%xmm0
    1674:	f2 0f 5e 05 cc 09 00 	divsd  0x9cc(%rip),%xmm0        # 2048 <_IO_stdin_used+0x48>
    167b:	00 
    167c:	f2 0f 10 4c 24 78    	movsd  0x78(%rsp),%xmm1
    1682:	f2 0f 5e c8          	divsd  %xmm0,%xmm1
    1686:	f2 0f 10 05 c2 09 00 	movsd  0x9c2(%rip),%xmm0        # 2050 <_IO_stdin_used+0x50>
    168d:	00 
    168e:	f2 0f 59 c7          	mulsd  %xmm7,%xmm0
    1692:	f2 0f 5e c2          	divsd  %xmm2,%xmm0
    1696:	66 0f 28 f2          	movapd %xmm2,%xmm6
    169a:	f2 0f 11 4c 24 08    	movsd  %xmm1,0x8(%rsp)
    16a0:	f2 0f 11 04 24       	movsd  %xmm0,(%rsp)
    16a5:	48 8d 3d 63 0a 00 00 	lea    0xa63(%rip),%rdi        # 210f <_IO_stdin_used+0x10f>
    16ac:	48 8d 35 41 0a 00 00 	lea    0xa41(%rip),%rsi        # 20f4 <_IO_stdin_used+0xf4>
    16b3:	f2 0f 10 44 24 50    	movsd  0x50(%rsp),%xmm0
    16b9:	f2 0f 10 8c 24 98 00 	movsd  0x98(%rsp),%xmm1
    16c0:	00 00 
    16c2:	f2 0f 10 54 24 60    	movsd  0x60(%rsp),%xmm2
    16c8:	4c 89 ea             	mov    %r13,%rdx
    16cb:	48 89 e9             	mov    %rbp,%rcx
    16ce:	f2 0f 10 5c 24 48    	movsd  0x48(%rsp),%xmm3
    16d4:	f2 0f 10 64 24 40    	movsd  0x40(%rsp),%xmm4
    16da:	f2 0f 10 6c 24 70    	movsd  0x70(%rsp),%xmm5
    16e0:	b0 08                	mov    $0x8,%al
    16e2:	e8 49 f9 ff ff       	call   1030 <printf@plt>
    16e7:	48 89 df             	mov    %rbx,%rdi
    16ea:	e8 c1 f9 ff ff       	call   10b0 <free@plt>
    16ef:	bf 40 00 00 00       	mov    $0x40,%edi
    16f4:	48 8b 74 24 58       	mov    0x58(%rsp),%rsi
    16f9:	e8 72 f9 ff ff       	call   1070 <aligned_alloc@plt>
    16fe:	48 89 c3             	mov    %rax,%rbx
    1701:	48 89 c7             	mov    %rax,%rdi
    1704:	4c 89 ee             	mov    %r13,%rsi
    1707:	ba 72 00 00 00       	mov    $0x72,%edx
    170c:	e8 9f 04 00 00       	call   1bb0 <init_f64>
    1711:	31 c0                	xor    %eax,%eax
    1713:	4c 8d b4 24 b0 00 00 	lea    0xb0(%rsp),%r14
    171a:	00 
    171b:	4c 8d bc 24 a0 00 00 	lea    0xa0(%rsp),%r15
    1722:	00 
    1723:	66 0f 57 c0          	xorpd  %xmm0,%xmm0
    1727:	f2 0f 11 44 24 48    	movsd  %xmm0,0x48(%rsp)
    172d:	eb 19                	jmp    1748 <main+0x568>
    172f:	90                   	nop
    1730:	48 8b 44 24 40       	mov    0x40(%rsp),%rax
    1735:	f2 0f 11 84 c4 c0 00 	movsd  %xmm0,0xc0(%rsp,%rax,8)
    173c:	00 00 
    173e:	48 83 c0 01          	add    $0x1,%rax
    1742:	48 83 f8 21          	cmp    $0x21,%rax
    1746:	74 7b                	je     17c3 <main+0x5e3>
    1748:	48 89 44 24 40       	mov    %rax,0x40(%rsp)
    174d:	eb 42                	jmp    1791 <main+0x5b1>
    174f:	90                   	nop
    1750:	f2 0f 11 44 24 48    	movsd  %xmm0,0x48(%rsp)
    1756:	bf 04 00 00 00       	mov    $0x4,%edi
    175b:	4c 89 fe             	mov    %r15,%rsi
    175e:	e8 2d f9 ff ff       	call   1090 <clock_gettime@plt>
    1763:	48 8b 84 24 a8 00 00 	mov    0xa8(%rsp),%rax
    176a:	00 
    176b:	48 2b 84 24 b8 00 00 	sub    0xb8(%rsp),%rax
    1772:	00 
    1773:	0f 57 c0             	xorps  %xmm0,%xmm0
    1776:	f2 48 0f 2a c0       	cvtsi2sd %rax,%xmm0
    177b:	f2 0f 5e 84 24 80 00 	divsd  0x80(%rsp),%xmm0
    1782:	00 00 
    1784:	66 0f 57 c9          	xorpd  %xmm1,%xmm1
    1788:	66 0f 2e c8          	ucomisd %xmm0,%xmm1
    178c:	4c 89 e5             	mov    %r12,%rbp
    178f:	72 9f                	jb     1730 <main+0x550>
    1791:	bf 04 00 00 00       	mov    $0x4,%edi
    1796:	4c 89 f6             	mov    %r14,%rsi
    1799:	e8 f2 f8 ff ff       	call   1090 <clock_gettime@plt>
    179e:	48 89 e8             	mov    %rbp,%rax
    17a1:	49 89 ec             	mov    %rbp,%r12
    17a4:	48 85 ed             	test   %rbp,%rbp
    17a7:	f2 0f 10 44 24 48    	movsd  0x48(%rsp),%xmm0
    17ad:	74 a1                	je     1750 <main+0x570>
    17af:	90                   	nop
    17b0:	48 89 df             	mov    %rbx,%rdi
    17b3:	4c 89 ee             	mov    %r13,%rsi
    17b6:	e8 85 06 00 00       	call   1e40 <reduc_unroll8>
    17bb:	48 83 c5 ff          	add    $0xffffffffffffffff,%rbp
    17bf:	75 ef                	jne    17b0 <main+0x5d0>
    17c1:	eb 8d                	jmp    1750 <main+0x570>
    17c3:	4c 8d b4 24 c0 00 00 	lea    0xc0(%rsp),%r14
    17ca:	00 
    17cb:	be 21 00 00 00       	mov    $0x21,%esi
    17d0:	4c 89 f7             	mov    %r14,%rdi
    17d3:	e8 88 04 00 00       	call   1c60 <sort_f64>
    17d8:	f2 0f 10 84 24 c0 00 	movsd  0xc0(%rsp),%xmm0
    17df:	00 00 
    17e1:	f2 0f 11 84 24 80 00 	movsd  %xmm0,0x80(%rsp)
    17e8:	00 00 
    17ea:	f2 0f 10 84 24 c0 01 	movsd  0x1c0(%rsp),%xmm0
    17f1:	00 00 
    17f3:	f2 0f 11 44 24 40    	movsd  %xmm0,0x40(%rsp)
    17f9:	be 21 00 00 00       	mov    $0x21,%esi
    17fe:	4c 89 f7             	mov    %r14,%rdi
    1801:	e8 ba 04 00 00       	call   1cc0 <mean_f64>
    1806:	f2 0f 11 44 24 58    	movsd  %xmm0,0x58(%rsp)
    180c:	be 21 00 00 00       	mov    $0x21,%esi
    1811:	4c 89 f7             	mov    %r14,%rdi
    1814:	e8 f7 04 00 00       	call   1d10 <stddev_f64>
    1819:	66 0f 28 f8          	movapd %xmm0,%xmm7
    181d:	f2 0f 10 54 24 58    	movsd  0x58(%rsp),%xmm2
    1823:	66 0f 28 c2          	movapd %xmm2,%xmm0
    1827:	f2 0f 5e 05 19 08 00 	divsd  0x819(%rip),%xmm0        # 2048 <_IO_stdin_used+0x48>
    182e:	00 
    182f:	f2 0f 10 4c 24 78    	movsd  0x78(%rsp),%xmm1
    1835:	f2 0f 5e c8          	divsd  %xmm0,%xmm1
    1839:	f2 0f 10 05 0f 08 00 	movsd  0x80f(%rip),%xmm0        # 2050 <_IO_stdin_used+0x50>
    1840:	00 
    1841:	f2 0f 59 c7          	mulsd  %xmm7,%xmm0
    1845:	f2 0f 5e c2          	divsd  %xmm2,%xmm0
    1849:	66 0f 28 f2          	movapd %xmm2,%xmm6
    184d:	f2 0f 11 4c 24 08    	movsd  %xmm1,0x8(%rsp)
    1853:	f2 0f 11 04 24       	movsd  %xmm0,(%rsp)
    1858:	48 8d 3d b0 08 00 00 	lea    0x8b0(%rip),%rdi        # 210f <_IO_stdin_used+0x10f>
    185f:	48 8d 35 9c 08 00 00 	lea    0x89c(%rip),%rsi        # 2102 <_IO_stdin_used+0x102>
    1866:	f2 0f 10 44 24 50    	movsd  0x50(%rsp),%xmm0
    186c:	f2 0f 10 8c 24 98 00 	movsd  0x98(%rsp),%xmm1
    1873:	00 00 
    1875:	f2 0f 10 54 24 60    	movsd  0x60(%rsp),%xmm2
    187b:	4c 89 ea             	mov    %r13,%rdx
    187e:	48 89 e9             	mov    %rbp,%rcx
    1881:	f2 0f 10 5c 24 48    	movsd  0x48(%rsp),%xmm3
    1887:	f2 0f 10 a4 24 80 00 	movsd  0x80(%rsp),%xmm4
    188e:	00 00 
    1890:	f2 0f 10 6c 24 40    	movsd  0x40(%rsp),%xmm5
    1896:	b0 08                	mov    $0x8,%al
    1898:	e8 93 f7 ff ff       	call   1030 <printf@plt>
    189d:	48 89 df             	mov    %rbx,%rdi
    18a0:	e8 0b f8 ff ff       	call   10b0 <free@plt>
    18a5:	31 c0                	xor    %eax,%eax
    18a7:	48 81 c4 c8 01 00 00 	add    $0x1c8,%rsp
    18ae:	5b                   	pop    %rbx
    18af:	41 5c                	pop    %r12
    18b1:	41 5d                	pop    %r13
    18b3:	41 5e                	pop    %r14
    18b5:	41 5f                	pop    %r15
    18b7:	5d                   	pop    %rbp
    18b8:	c3                   	ret    
    18b9:	0f 1f 80 00 00 00 00 	nopl   0x0(%rax)

00000000000018c0 <run_benchmark>:
    18c0:	55                   	push   %rbp
    18c1:	41 57                	push   %r15
    18c3:	41 56                	push   %r14
    18c5:	41 55                	push   %r13
    18c7:	41 54                	push   %r12
    18c9:	53                   	push   %rbx
    18ca:	48 81 ec 88 01 00 00 	sub    $0x188,%rsp
    18d1:	48 89 cd             	mov    %rcx,%rbp
    18d4:	49 89 d4             	mov    %rdx,%r12
    18d7:	48 89 f3             	mov    %rsi,%rbx
    18da:	48 89 7c 24 58       	mov    %rdi,0x58(%rsp)
    18df:	48 8d 34 d5 00 00 00 	lea    0x0(,%rdx,8),%rsi
    18e6:	00 
    18e7:	48 85 f6             	test   %rsi,%rsi
    18ea:	78 07                	js     18f3 <run_benchmark+0x33>
    18ec:	f3 48 0f 2a c6       	cvtsi2ss %rsi,%xmm0
    18f1:	eb 0f                	jmp    1902 <run_benchmark+0x42>
    18f3:	48 89 f0             	mov    %rsi,%rax
    18f6:	48 d1 e8             	shr    %rax
    18f9:	f3 48 0f 2a c0       	cvtsi2ss %rax,%xmm0
    18fe:	f3 0f 58 c0          	addss  %xmm0,%xmm0
    1902:	f3 0f 5a c0          	cvtss2sd %xmm0,%xmm0
    1906:	f2 0f 11 44 24 18    	movsd  %xmm0,0x18(%rsp)
    190c:	bf 40 00 00 00       	mov    $0x40,%edi
    1911:	e8 5a f7 ff ff       	call   1070 <aligned_alloc@plt>
    1916:	49 89 c5             	mov    %rax,%r13
    1919:	48 89 c7             	mov    %rax,%rdi
    191c:	4c 89 e6             	mov    %r12,%rsi
    191f:	ba 72 00 00 00       	mov    $0x72,%edx
    1924:	e8 87 02 00 00       	call   1bb0 <init_f64>
    1929:	66 48 0f 6e c5       	movq   %rbp,%xmm0
    192e:	66 0f 62 05 da 06 00 	punpckldq 0x6da(%rip),%xmm0        # 2010 <_IO_stdin_used+0x10>
    1935:	00 
    1936:	66 0f 5c 05 e2 06 00 	subpd  0x6e2(%rip),%xmm0        # 2020 <_IO_stdin_used+0x20>
    193d:	00 
    193e:	66 0f 28 c8          	movapd %xmm0,%xmm1
    1942:	66 0f 15 c8          	unpckhpd %xmm0,%xmm1
    1946:	f2 0f 58 c8          	addsd  %xmm0,%xmm1
    194a:	66 0f 29 4c 24 30    	movapd %xmm1,0x30(%rsp)
    1950:	31 c0                	xor    %eax,%eax
    1952:	4c 8d 7c 24 60       	lea    0x60(%rsp),%r15
    1957:	66 0f 57 c0          	xorpd  %xmm0,%xmm0
    195b:	f2 0f 11 44 24 28    	movsd  %xmm0,0x28(%rsp)
    1961:	eb 25                	jmp    1988 <run_benchmark+0xc8>
    1963:	66 2e 0f 1f 84 00 00 	cs nopw 0x0(%rax,%rax,1)
    196a:	00 00 00 
    196d:	0f 1f 00             	nopl   (%rax)
    1970:	48 8b 44 24 20       	mov    0x20(%rsp),%rax
    1975:	f2 0f 11 84 c4 80 00 	movsd  %xmm0,0x80(%rsp,%rax,8)
    197c:	00 00 
    197e:	48 83 c0 01          	add    $0x1,%rax
    1982:	48 83 f8 21          	cmp    $0x21,%rax
    1986:	74 78                	je     1a00 <run_benchmark+0x140>
    1988:	48 89 44 24 20       	mov    %rax,0x20(%rsp)
    198d:	eb 36                	jmp    19c5 <run_benchmark+0x105>
    198f:	90                   	nop
    1990:	f2 0f 11 44 24 28    	movsd  %xmm0,0x28(%rsp)
    1996:	bf 04 00 00 00       	mov    $0x4,%edi
    199b:	4c 89 fe             	mov    %r15,%rsi
    199e:	e8 ed f6 ff ff       	call   1090 <clock_gettime@plt>
    19a3:	48 8b 44 24 68       	mov    0x68(%rsp),%rax
    19a8:	48 2b 44 24 78       	sub    0x78(%rsp),%rax
    19ad:	0f 57 c0             	xorps  %xmm0,%xmm0
    19b0:	f2 48 0f 2a c0       	cvtsi2sd %rax,%xmm0
    19b5:	f2 0f 5e 44 24 30    	divsd  0x30(%rsp),%xmm0
    19bb:	66 0f 57 c9          	xorpd  %xmm1,%xmm1
    19bf:	66 0f 2e c8          	ucomisd %xmm0,%xmm1
    19c3:	72 ab                	jb     1970 <run_benchmark+0xb0>
    19c5:	bf 04 00 00 00       	mov    $0x4,%edi
    19ca:	48 8d 74 24 70       	lea    0x70(%rsp),%rsi
    19cf:	e8 bc f6 ff ff       	call   1090 <clock_gettime@plt>
    19d4:	49 89 ee             	mov    %rbp,%r14
    19d7:	48 85 ed             	test   %rbp,%rbp
    19da:	f2 0f 10 44 24 28    	movsd  0x28(%rsp),%xmm0
    19e0:	74 ae                	je     1990 <run_benchmark+0xd0>
    19e2:	66 2e 0f 1f 84 00 00 	cs nopw 0x0(%rax,%rax,1)
    19e9:	00 00 00 
    19ec:	0f 1f 40 00          	nopl   0x0(%rax)
    19f0:	4c 89 ef             	mov    %r13,%rdi
    19f3:	4c 89 e6             	mov    %r12,%rsi
    19f6:	ff d3                	call   *%rbx
    19f8:	49 83 c6 ff          	add    $0xffffffffffffffff,%r14
    19fc:	75 f2                	jne    19f0 <run_benchmark+0x130>
    19fe:	eb 90                	jmp    1990 <run_benchmark+0xd0>
    1a00:	f2 0f 10 05 28 06 00 	movsd  0x628(%rip),%xmm0        # 2030 <_IO_stdin_used+0x30>
    1a07:	00 
    1a08:	f2 0f 10 4c 24 18    	movsd  0x18(%rsp),%xmm1
    1a0e:	f2 0f 59 c1          	mulsd  %xmm1,%xmm0
    1a12:	f2 0f 11 44 24 48    	movsd  %xmm0,0x48(%rsp)
    1a18:	f2 0f 10 05 18 06 00 	movsd  0x618(%rip),%xmm0        # 2038 <_IO_stdin_used+0x38>
    1a1f:	00 
    1a20:	f2 0f 59 c1          	mulsd  %xmm1,%xmm0
    1a24:	f2 0f 11 44 24 50    	movsd  %xmm0,0x50(%rsp)
    1a2a:	f2 0f 59 0d 0e 06 00 	mulsd  0x60e(%rip),%xmm1        # 2040 <_IO_stdin_used+0x40>
    1a31:	00 
    1a32:	f2 0f 11 4c 24 18    	movsd  %xmm1,0x18(%rsp)
    1a38:	48 8d 9c 24 80 00 00 	lea    0x80(%rsp),%rbx
    1a3f:	00 
    1a40:	be 21 00 00 00       	mov    $0x21,%esi
    1a45:	48 89 df             	mov    %rbx,%rdi
    1a48:	e8 13 02 00 00       	call   1c60 <sort_f64>
    1a4d:	f2 0f 10 84 24 80 00 	movsd  0x80(%rsp),%xmm0
    1a54:	00 00 
    1a56:	f2 0f 11 44 24 30    	movsd  %xmm0,0x30(%rsp)
    1a5c:	f2 0f 10 84 24 80 01 	movsd  0x180(%rsp),%xmm0
    1a63:	00 00 
    1a65:	f2 0f 11 44 24 20    	movsd  %xmm0,0x20(%rsp)
    1a6b:	be 21 00 00 00       	mov    $0x21,%esi
    1a70:	48 89 df             	mov    %rbx,%rdi
    1a73:	e8 48 02 00 00       	call   1cc0 <mean_f64>
    1a78:	f2 0f 11 44 24 40    	movsd  %xmm0,0x40(%rsp)
    1a7e:	be 21 00 00 00       	mov    $0x21,%esi
    1a83:	48 89 df             	mov    %rbx,%rdi
    1a86:	e8 85 02 00 00       	call   1d10 <stddev_f64>
    1a8b:	f2 0f 10 6c 24 40    	movsd  0x40(%rsp),%xmm5
    1a91:	66 0f 28 cd          	movapd %xmm5,%xmm1
    1a95:	f2 0f 5e 0d ab 05 00 	divsd  0x5ab(%rip),%xmm1        # 2048 <_IO_stdin_used+0x48>
    1a9c:	00 
    1a9d:	66 0f 28 f8          	movapd %xmm0,%xmm7
    1aa1:	f2 0f 10 54 24 48    	movsd  0x48(%rsp),%xmm2
    1aa7:	66 0f 28 e2          	movapd %xmm2,%xmm4
    1aab:	f2 0f 5e e1          	divsd  %xmm1,%xmm4
    1aaf:	f2 0f 10 44 24 18    	movsd  0x18(%rsp),%xmm0
    1ab5:	f2 0f 58 c0          	addsd  %xmm0,%xmm0
    1ab9:	f2 0f 58 d2          	addsd  %xmm2,%xmm2
    1abd:	66 0f 28 ca          	movapd %xmm2,%xmm1
    1ac1:	f2 0f 10 54 24 50    	movsd  0x50(%rsp),%xmm2
    1ac7:	f2 0f 58 d2          	addsd  %xmm2,%xmm2
    1acb:	f2 0f 10 1d 7d 05 00 	movsd  0x57d(%rip),%xmm3        # 2050 <_IO_stdin_used+0x50>
    1ad2:	00 
    1ad3:	f2 0f 59 df          	mulsd  %xmm7,%xmm3
    1ad7:	f2 0f 5e dd          	divsd  %xmm5,%xmm3
    1adb:	66 0f 28 f5          	movapd %xmm5,%xmm6
    1adf:	f2 0f 11 64 24 08    	movsd  %xmm4,0x8(%rsp)
    1ae5:	f2 0f 11 1c 24       	movsd  %xmm3,(%rsp)
    1aea:	48 8d 3d 1e 06 00 00 	lea    0x61e(%rip),%rdi        # 210f <_IO_stdin_used+0x10f>
    1af1:	48 8b 74 24 58       	mov    0x58(%rsp),%rsi
    1af6:	4c 89 e2             	mov    %r12,%rdx
    1af9:	48 89 e9             	mov    %rbp,%rcx
    1afc:	f2 0f 10 5c 24 28    	movsd  0x28(%rsp),%xmm3
    1b02:	f2 0f 10 64 24 30    	movsd  0x30(%rsp),%xmm4
    1b08:	f2 0f 10 6c 24 20    	movsd  0x20(%rsp),%xmm5
    1b0e:	b0 08                	mov    $0x8,%al
    1b10:	e8 1b f5 ff ff       	call   1030 <printf@plt>
    1b15:	4c 89 ef             	mov    %r13,%rdi
    1b18:	e8 93 f5 ff ff       	call   10b0 <free@plt>
    1b1d:	48 81 c4 88 01 00 00 	add    $0x188,%rsp
    1b24:	5b                   	pop    %rbx
    1b25:	41 5c                	pop    %r12
    1b27:	41 5d                	pop    %r13
    1b29:	41 5e                	pop    %r14
    1b2b:	41 5f                	pop    %r15
    1b2d:	5d                   	pop    %rbp
    1b2e:	c3                   	ret    
    1b2f:	90                   	nop

0000000000001b30 <print_f64>:
    1b30:	55                   	push   %rbp
    1b31:	41 57                	push   %r15
    1b33:	41 56                	push   %r14
    1b35:	41 55                	push   %r13
    1b37:	41 54                	push   %r12
    1b39:	53                   	push   %rbx
    1b3a:	50                   	push   %rax
    1b3b:	48 85 f6             	test   %rsi,%rsi
    1b3e:	74 48                	je     1b88 <print_f64+0x58>
    1b40:	49 89 f4             	mov    %rsi,%r12
    1b43:	49 89 fe             	mov    %rdi,%r14
    1b46:	48 8d 5e ff          	lea    -0x1(%rsi),%rbx
    1b4a:	31 c0                	xor    %eax,%eax
    1b4c:	41 bd 0a 00 00 00    	mov    $0xa,%r13d
    1b52:	4c 8d 3d 37 06 00 00 	lea    0x637(%rip),%r15        # 2190 <_IO_stdin_used+0x190>
    1b59:	0f 1f 80 00 00 00 00 	nopl   0x0(%rax)
    1b60:	f2 41 0f 10 04 c6    	movsd  (%r14,%rax,8),%xmm0
    1b66:	48 8d 68 01          	lea    0x1(%rax),%rbp
    1b6a:	48 39 c3             	cmp    %rax,%rbx
    1b6d:	be 20 00 00 00       	mov    $0x20,%esi
    1b72:	41 0f 44 f5          	cmove  %r13d,%esi
    1b76:	4c 89 ff             	mov    %r15,%rdi
    1b79:	b0 01                	mov    $0x1,%al
    1b7b:	e8 b0 f4 ff ff       	call   1030 <printf@plt>
    1b80:	48 89 e8             	mov    %rbp,%rax
    1b83:	49 39 ec             	cmp    %rbp,%r12
    1b86:	75 d8                	jne    1b60 <print_f64+0x30>
    1b88:	bf 0a 00 00 00       	mov    $0xa,%edi
    1b8d:	e8 2e f5 ff ff       	call   10c0 <putchar@plt>
    1b92:	48 83 c4 08          	add    $0x8,%rsp
    1b96:	5b                   	pop    %rbx
    1b97:	41 5c                	pop    %r12
    1b99:	41 5d                	pop    %r13
    1b9b:	41 5e                	pop    %r14
    1b9d:	41 5f                	pop    %r15
    1b9f:	5d                   	pop    %rbp
    1ba0:	c3                   	ret    
    1ba1:	66 2e 0f 1f 84 00 00 	cs nopw 0x0(%rax,%rax,1)
    1ba8:	00 00 00 
    1bab:	0f 1f 44 00 00       	nopl   0x0(%rax,%rax,1)

0000000000001bb0 <init_f64>:
    1bb0:	41 57                	push   %r15
    1bb2:	41 56                	push   %r14
    1bb4:	53                   	push   %rbx
    1bb5:	49 89 f7             	mov    %rsi,%r15
    1bb8:	49 89 fe             	mov    %rdi,%r14
    1bbb:	80 e2 df             	and    $0xdf,%dl
    1bbe:	80 fa 43             	cmp    $0x43,%dl
    1bc1:	74 2a                	je     1bed <init_f64+0x3d>
    1bc3:	80 fa 52             	cmp    $0x52,%dl
    1bc6:	74 59                	je     1c21 <init_f64+0x71>
    1bc8:	80 fa 5a             	cmp    $0x5a,%dl
    1bcb:	0f 85 86 00 00 00    	jne    1c57 <init_f64+0xa7>
    1bd1:	4d 85 ff             	test   %r15,%r15
    1bd4:	0f 84 7d 00 00 00    	je     1c57 <init_f64+0xa7>
    1bda:	49 c1 e7 03          	shl    $0x3,%r15
    1bde:	4c 89 f7             	mov    %r14,%rdi
    1be1:	31 f6                	xor    %esi,%esi
    1be3:	4c 89 fa             	mov    %r15,%rdx
    1be6:	e8 75 f4 ff ff       	call   1060 <memset@plt>
    1beb:	eb 6a                	jmp    1c57 <init_f64+0xa7>
    1bed:	e8 5e f4 ff ff       	call   1050 <rand@plt>
    1bf2:	4d 85 ff             	test   %r15,%r15
    1bf5:	74 60                	je     1c57 <init_f64+0xa7>
    1bf7:	f2 0f 2a c8          	cvtsi2sd %eax,%xmm1
    1bfb:	f2 0f 10 05 85 05 00 	movsd  0x585(%rip),%xmm0        # 2188 <_IO_stdin_used+0x188>
    1c02:	00 
    1c03:	f2 0f 5e c1          	divsd  %xmm1,%xmm0
    1c07:	31 c0                	xor    %eax,%eax
    1c09:	0f 1f 80 00 00 00 00 	nopl   0x0(%rax)
    1c10:	f2 41 0f 11 04 c6    	movsd  %xmm0,(%r14,%rax,8)
    1c16:	48 83 c0 01          	add    $0x1,%rax
    1c1a:	49 39 c7             	cmp    %rax,%r15
    1c1d:	75 f1                	jne    1c10 <init_f64+0x60>
    1c1f:	eb 36                	jmp    1c57 <init_f64+0xa7>
    1c21:	4d 85 ff             	test   %r15,%r15
    1c24:	74 31                	je     1c57 <init_f64+0xa7>
    1c26:	31 db                	xor    %ebx,%ebx
    1c28:	0f 1f 84 00 00 00 00 	nopl   0x0(%rax,%rax,1)
    1c2f:	00 
    1c30:	e8 1b f4 ff ff       	call   1050 <rand@plt>
    1c35:	0f 57 c0             	xorps  %xmm0,%xmm0
    1c38:	f2 0f 2a c0          	cvtsi2sd %eax,%xmm0
    1c3c:	f2 0f 10 0d 44 05 00 	movsd  0x544(%rip),%xmm1        # 2188 <_IO_stdin_used+0x188>
    1c43:	00 
    1c44:	f2 0f 5e c8          	divsd  %xmm0,%xmm1
    1c48:	f2 41 0f 11 0c de    	movsd  %xmm1,(%r14,%rbx,8)
    1c4e:	48 83 c3 01          	add    $0x1,%rbx
    1c52:	49 39 df             	cmp    %rbx,%r15
    1c55:	75 d9                	jne    1c30 <init_f64+0x80>
    1c57:	5b                   	pop    %rbx
    1c58:	41 5e                	pop    %r14
    1c5a:	41 5f                	pop    %r15
    1c5c:	c3                   	ret    
    1c5d:	0f 1f 00             	nopl   (%rax)

0000000000001c60 <sort_f64>:
    1c60:	48 85 f6             	test   %rsi,%rsi
    1c63:	74 50                	je     1cb5 <sort_f64+0x55>
    1c65:	31 c0                	xor    %eax,%eax
    1c67:	eb 0c                	jmp    1c75 <sort_f64+0x15>
    1c69:	0f 1f 80 00 00 00 00 	nopl   0x0(%rax)
    1c70:	48 39 f0             	cmp    %rsi,%rax
    1c73:	74 40                	je     1cb5 <sort_f64+0x55>
    1c75:	48 89 c1             	mov    %rax,%rcx
    1c78:	48 83 c0 01          	add    $0x1,%rax
    1c7c:	48 39 f0             	cmp    %rsi,%rax
    1c7f:	73 ef                	jae    1c70 <sort_f64+0x10>
    1c81:	48 89 c2             	mov    %rax,%rdx
    1c84:	eb 13                	jmp    1c99 <sort_f64+0x39>
    1c86:	66 2e 0f 1f 84 00 00 	cs nopw 0x0(%rax,%rax,1)
    1c8d:	00 00 00 
    1c90:	48 83 c2 01          	add    $0x1,%rdx
    1c94:	48 39 f2             	cmp    %rsi,%rdx
    1c97:	73 d7                	jae    1c70 <sort_f64+0x10>
    1c99:	f2 0f 10 04 cf       	movsd  (%rdi,%rcx,8),%xmm0
    1c9e:	f2 0f 10 0c d7       	movsd  (%rdi,%rdx,8),%xmm1
    1ca3:	66 0f 2e c1          	ucomisd %xmm1,%xmm0
    1ca7:	76 e7                	jbe    1c90 <sort_f64+0x30>
    1ca9:	f2 0f 11 0c cf       	movsd  %xmm1,(%rdi,%rcx,8)
    1cae:	f2 0f 11 04 d7       	movsd  %xmm0,(%rdi,%rdx,8)
    1cb3:	eb db                	jmp    1c90 <sort_f64+0x30>
    1cb5:	c3                   	ret    
    1cb6:	66 2e 0f 1f 84 00 00 	cs nopw 0x0(%rax,%rax,1)
    1cbd:	00 00 00 

0000000000001cc0 <mean_f64>:
    1cc0:	66 0f 57 c0          	xorpd  %xmm0,%xmm0
    1cc4:	48 85 f6             	test   %rsi,%rsi
    1cc7:	74 15                	je     1cde <mean_f64+0x1e>
    1cc9:	31 c0                	xor    %eax,%eax
    1ccb:	0f 1f 44 00 00       	nopl   0x0(%rax,%rax,1)
    1cd0:	f2 0f 58 04 c7       	addsd  (%rdi,%rax,8),%xmm0
    1cd5:	48 83 c0 01          	add    $0x1,%rax
    1cd9:	48 39 c6             	cmp    %rax,%rsi
    1cdc:	75 f2                	jne    1cd0 <mean_f64+0x10>
    1cde:	66 48 0f 6e ce       	movq   %rsi,%xmm1
    1ce3:	66 0f 62 0d 25 03 00 	punpckldq 0x325(%rip),%xmm1        # 2010 <_IO_stdin_used+0x10>
    1cea:	00 
    1ceb:	66 0f 5c 0d 2d 03 00 	subpd  0x32d(%rip),%xmm1        # 2020 <_IO_stdin_used+0x20>
    1cf2:	00 
    1cf3:	66 0f 28 d1          	movapd %xmm1,%xmm2
    1cf7:	66 0f 15 d1          	unpckhpd %xmm1,%xmm2
    1cfb:	f2 0f 58 d1          	addsd  %xmm1,%xmm2
    1cff:	f2 0f 5e c2          	divsd  %xmm2,%xmm0
    1d03:	c3                   	ret    
    1d04:	66 2e 0f 1f 84 00 00 	cs nopw 0x0(%rax,%rax,1)
    1d0b:	00 00 00 
    1d0e:	66 90                	xchg   %ax,%ax

0000000000001d10 <stddev_f64>:
    1d10:	50                   	push   %rax
    1d11:	66 0f 57 c0          	xorpd  %xmm0,%xmm0
    1d15:	66 0f 57 c9          	xorpd  %xmm1,%xmm1
    1d19:	48 85 f6             	test   %rsi,%rsi
    1d1c:	74 20                	je     1d3e <stddev_f64+0x2e>
    1d1e:	66 0f 57 c9          	xorpd  %xmm1,%xmm1
    1d22:	31 c0                	xor    %eax,%eax
    1d24:	66 2e 0f 1f 84 00 00 	cs nopw 0x0(%rax,%rax,1)
    1d2b:	00 00 00 
    1d2e:	66 90                	xchg   %ax,%ax
    1d30:	f2 0f 58 0c c7       	addsd  (%rdi,%rax,8),%xmm1
    1d35:	48 83 c0 01          	add    $0x1,%rax
    1d39:	48 39 c6             	cmp    %rax,%rsi
    1d3c:	75 f2                	jne    1d30 <stddev_f64+0x20>
    1d3e:	48 85 f6             	test   %rsi,%rsi
    1d41:	74 47                	je     1d8a <stddev_f64+0x7a>
    1d43:	66 48 0f 6e c6       	movq   %rsi,%xmm0
    1d48:	66 0f 62 05 c0 02 00 	punpckldq 0x2c0(%rip),%xmm0        # 2010 <_IO_stdin_used+0x10>
    1d4f:	00 
    1d50:	66 0f 5c 05 c8 02 00 	subpd  0x2c8(%rip),%xmm0        # 2020 <_IO_stdin_used+0x20>
    1d57:	00 
    1d58:	66 0f 28 d0          	movapd %xmm0,%xmm2
    1d5c:	66 0f 15 d0          	unpckhpd %xmm0,%xmm2
    1d60:	f2 0f 58 d0          	addsd  %xmm0,%xmm2
    1d64:	f2 0f 5e ca          	divsd  %xmm2,%xmm1
    1d68:	66 0f 57 c0          	xorpd  %xmm0,%xmm0
    1d6c:	31 c0                	xor    %eax,%eax
    1d6e:	66 90                	xchg   %ax,%ax
    1d70:	f2 0f 10 14 c7       	movsd  (%rdi,%rax,8),%xmm2
    1d75:	f2 0f 5c d1          	subsd  %xmm1,%xmm2
    1d79:	f2 0f 59 d2          	mulsd  %xmm2,%xmm2
    1d7d:	f2 0f 58 c2          	addsd  %xmm2,%xmm0
    1d81:	48 83 c0 01          	add    $0x1,%rax
    1d85:	48 39 c6             	cmp    %rax,%rsi
    1d88:	75 e6                	jne    1d70 <stddev_f64+0x60>
    1d8a:	48 83 c6 ff          	add    $0xffffffffffffffff,%rsi
    1d8e:	66 48 0f 6e ce       	movq   %rsi,%xmm1
    1d93:	66 0f 62 0d 75 02 00 	punpckldq 0x275(%rip),%xmm1        # 2010 <_IO_stdin_used+0x10>
    1d9a:	00 
    1d9b:	66 0f 5c 0d 7d 02 00 	subpd  0x27d(%rip),%xmm1        # 2020 <_IO_stdin_used+0x20>
    1da2:	00 
    1da3:	66 0f 28 d1          	movapd %xmm1,%xmm2
    1da7:	66 0f 15 d1          	unpckhpd %xmm1,%xmm2
    1dab:	f2 0f 58 d1          	addsd  %xmm1,%xmm2
    1daf:	f2 0f 5e c2          	divsd  %xmm2,%xmm0
    1db3:	66 0f 57 c9          	xorpd  %xmm1,%xmm1
    1db7:	66 0f 2e c1          	ucomisd %xmm1,%xmm0
    1dbb:	72 06                	jb     1dc3 <stddev_f64+0xb3>
    1dbd:	f2 0f 51 c0          	sqrtsd %xmm0,%xmm0
    1dc1:	58                   	pop    %rax
    1dc2:	c3                   	ret    
    1dc3:	e8 b8 f2 ff ff       	call   1080 <sqrt@plt>
    1dc8:	58                   	pop    %rax
    1dc9:	c3                   	ret    
    1dca:	66 0f 1f 44 00 00    	nopw   0x0(%rax,%rax,1)

0000000000001dd0 <reduc_base>:
    1dd0:	66 0f 57 c0          	xorpd  %xmm0,%xmm0
    1dd4:	48 85 f6             	test   %rsi,%rsi
    1dd7:	74 15                	je     1dee <reduc_base+0x1e>
    1dd9:	31 c0                	xor    %eax,%eax
    1ddb:	0f 1f 44 00 00       	nopl   0x0(%rax,%rax,1)
    1de0:	f2 0f 58 04 c7       	addsd  (%rdi,%rax,8),%xmm0
    1de5:	48 83 c0 01          	add    $0x1,%rax
    1de9:	48 39 c6             	cmp    %rax,%rsi
    1dec:	75 f2                	jne    1de0 <reduc_base+0x10>
    1dee:	c3                   	ret    
    1def:	90                   	nop

0000000000001df0 <reduc_unroll4>:
    1df0:	48 89 f0             	mov    %rsi,%rax
    1df3:	66 0f 57 c0          	xorpd  %xmm0,%xmm0
    1df7:	48 83 e0 fc          	and    $0xfffffffffffffffc,%rax
    1dfb:	74 3c                	je     1e39 <reduc_unroll4+0x49>
    1dfd:	31 c9                	xor    %ecx,%ecx
    1dff:	90                   	nop
    1e00:	f2 0f 58 04 cf       	addsd  (%rdi,%rcx,8),%xmm0
    1e05:	f2 0f 58 44 cf 08    	addsd  0x8(%rdi,%rcx,8),%xmm0
    1e0b:	f2 0f 58 44 cf 10    	addsd  0x10(%rdi,%rcx,8),%xmm0
    1e11:	f2 0f 58 44 cf 18    	addsd  0x18(%rdi,%rcx,8),%xmm0
    1e17:	48 8d 51 01          	lea    0x1(%rcx),%rdx
    1e1b:	48 89 d1             	mov    %rdx,%rcx
    1e1e:	48 39 d0             	cmp    %rdx,%rax
    1e21:	75 dd                	jne    1e00 <reduc_unroll4+0x10>
    1e23:	eb 14                	jmp    1e39 <reduc_unroll4+0x49>
    1e25:	66 2e 0f 1f 84 00 00 	cs nopw 0x0(%rax,%rax,1)
    1e2c:	00 00 00 
    1e2f:	90                   	nop
    1e30:	f2 0f 58 04 c7       	addsd  (%rdi,%rax,8),%xmm0
    1e35:	48 83 c0 01          	add    $0x1,%rax
    1e39:	48 39 f0             	cmp    %rsi,%rax
    1e3c:	72 f2                	jb     1e30 <reduc_unroll4+0x40>
    1e3e:	c3                   	ret    
    1e3f:	90                   	nop

0000000000001e40 <reduc_unroll8>:
    1e40:	48 89 f0             	mov    %rsi,%rax
    1e43:	66 0f 57 c0          	xorpd  %xmm0,%xmm0
    1e47:	48 83 e0 f8          	and    $0xfffffffffffffff8,%rax
    1e4b:	74 4c                	je     1e99 <reduc_unroll8+0x59>
    1e4d:	31 c9                	xor    %ecx,%ecx
    1e4f:	90                   	nop
    1e50:	f2 0f 58 04 cf       	addsd  (%rdi,%rcx,8),%xmm0
    1e55:	f2 0f 58 44 cf 08    	addsd  0x8(%rdi,%rcx,8),%xmm0
    1e5b:	f2 0f 58 44 cf 10    	addsd  0x10(%rdi,%rcx,8),%xmm0
    1e61:	f2 0f 58 44 cf 18    	addsd  0x18(%rdi,%rcx,8),%xmm0
    1e67:	f2 0f 58 44 cf 20    	addsd  0x20(%rdi,%rcx,8),%xmm0
    1e6d:	f2 0f 58 44 cf 28    	addsd  0x28(%rdi,%rcx,8),%xmm0
    1e73:	f2 0f 58 44 cf 30    	addsd  0x30(%rdi,%rcx,8),%xmm0
    1e79:	f2 0f 58 44 cf 38    	addsd  0x38(%rdi,%rcx,8),%xmm0
    1e7f:	48 8d 51 01          	lea    0x1(%rcx),%rdx
    1e83:	48 89 d1             	mov    %rdx,%rcx
    1e86:	48 39 d0             	cmp    %rdx,%rax
    1e89:	75 c5                	jne    1e50 <reduc_unroll8+0x10>
    1e8b:	eb 0c                	jmp    1e99 <reduc_unroll8+0x59>
    1e8d:	0f 1f 00             	nopl   (%rax)
    1e90:	f2 0f 58 04 c7       	addsd  (%rdi,%rax,8),%xmm0
    1e95:	48 83 c0 01          	add    $0x1,%rax
    1e99:	48 39 f0             	cmp    %rsi,%rax
    1e9c:	72 f2                	jb     1e90 <reduc_unroll8+0x50>
    1e9e:	c3                   	ret    

Disassembly of section .fini:

0000000000001ea0 <_fini>:
    1ea0:	f3 0f 1e fa          	endbr64 
    1ea4:	48 83 ec 08          	sub    $0x8,%rsp
    1ea8:	48 83 c4 08          	add    $0x8,%rsp
    1eac:	c3                   	ret    
